
ex_Barry_USB_STM32F411CE.elf:     file format elf32-littlearm

Sections:
Idx Name          Size      VMA       LMA       File off  Algn
  0 .isr_vector   00000198  08000000  08000000  00001000  2**0
                  CONTENTS, ALLOC, LOAD, READONLY, DATA
  1 .text         00004cd4  080001a0  080001a0  000011a0  2**4
                  CONTENTS, ALLOC, LOAD, READONLY, CODE
  2 .rodata       00000094  08004e74  08004e74  00005e74  2**0
                  CONTENTS, ALLOC, LOAD, READONLY, DATA
  3 .ARM.extab    00000000  08004f08  08004f08  00006158  2**0
                  CONTENTS
  4 .ARM          00000008  08004f08  08004f08  00005f08  2**2
                  CONTENTS, ALLOC, LOAD, READONLY, DATA
  5 .preinit_array 00000000  08004f10  08004f10  00006158  2**0
                  CONTENTS, ALLOC, LOAD, DATA
  6 .init_array   00000004  08004f10  08004f10  00005f10  2**2
                  CONTENTS, ALLOC, LOAD, READONLY, DATA
  7 .fini_array   00000004  08004f14  08004f14  00005f14  2**2
                  CONTENTS, ALLOC, LOAD, READONLY, DATA
  8 .data         00000158  20000000  08004f18  00006000  2**2
                  CONTENTS, ALLOC, LOAD, DATA
  9 .bss          00005d94  20000158  08005070  00006158  2**2
                  ALLOC
 10 ._user_heap_stack 00000604  20005eec  08005070  00006eec  2**0
                  ALLOC
 11 .ARM.attributes 00000030  00000000  00000000  00006158  2**0
                  CONTENTS, READONLY
 12 .comment      00000043  00000000  00000000  00006188  2**0
                  CONTENTS, READONLY
 13 .debug_frame  000006fc  00000000  00000000  000061cc  2**2
                  CONTENTS, READONLY, DEBUGGING, OCTETS

Disassembly of section .text:

080001a0 <__do_global_dtors_aux>:
 80001a0:	b510      	push	{r4, lr}
 80001a2:	4c05      	ldr	r4, [pc, #20]	@ (80001b8 <__do_global_dtors_aux+0x18>)
 80001a4:	7823      	ldrb	r3, [r4, #0]
 80001a6:	b933      	cbnz	r3, 80001b6 <__do_global_dtors_aux+0x16>
 80001a8:	4b04      	ldr	r3, [pc, #16]	@ (80001bc <__do_global_dtors_aux+0x1c>)
 80001aa:	b113      	cbz	r3, 80001b2 <__do_global_dtors_aux+0x12>
 80001ac:	4804      	ldr	r0, [pc, #16]	@ (80001c0 <__do_global_dtors_aux+0x20>)
 80001ae:	f3af 8000 	nop.w
 80001b2:	2301      	movs	r3, #1
 80001b4:	7023      	strb	r3, [r4, #0]
 80001b6:	bd10      	pop	{r4, pc}
 80001b8:	20000158 	.word	0x20000158
 80001bc:	00000000 	.word	0x00000000
 80001c0:	08004e5c 	.word	0x08004e5c

080001c4 <frame_dummy>:
 80001c4:	b508      	push	{r3, lr}
 80001c6:	4b03      	ldr	r3, [pc, #12]	@ (80001d4 <frame_dummy+0x10>)
 80001c8:	b11b      	cbz	r3, 80001d2 <frame_dummy+0xe>
 80001ca:	4903      	ldr	r1, [pc, #12]	@ (80001d8 <frame_dummy+0x14>)
 80001cc:	4803      	ldr	r0, [pc, #12]	@ (80001dc <frame_dummy+0x18>)
 80001ce:	f3af 8000 	nop.w
 80001d2:	bd08      	pop	{r3, pc}
 80001d4:	00000000 	.word	0x00000000
 80001d8:	2000015c 	.word	0x2000015c
 80001dc:	08004e5c 	.word	0x08004e5c

080001e0 <strlen>:
 80001e0:	4603      	mov	r3, r0
 80001e2:	f813 2b01 	ldrb.w	r2, [r3], #1
 80001e6:	2a00      	cmp	r2, #0
 80001e8:	d1fb      	bne.n	80001e2 <strlen+0x2>
 80001ea:	1a18      	subs	r0, r3, r0
 80001ec:	3801      	subs	r0, #1
 80001ee:	4770      	bx	lr

080001f0 <__aeabi_uldivmod>:
 80001f0:	b953      	cbnz	r3, 8000208 <__aeabi_uldivmod+0x18>
 80001f2:	b94a      	cbnz	r2, 8000208 <__aeabi_uldivmod+0x18>
 80001f4:	2900      	cmp	r1, #0
 80001f6:	bf08      	it	eq
 80001f8:	2800      	cmpeq	r0, #0
 80001fa:	bf1c      	itt	ne
 80001fc:	f04f 31ff 	movne.w	r1, #4294967295	@ 0xffffffff
 8000200:	f04f 30ff 	movne.w	r0, #4294967295	@ 0xffffffff
 8000204:	f000 b96a 	b.w	80004dc <__aeabi_idiv0>
 8000208:	f1ad 0c08 	sub.w	ip, sp, #8
 800020c:	e96d ce04 	strd	ip, lr, [sp, #-16]!
 8000210:	f000 f806 	bl	8000220 <__udivmoddi4>
 8000214:	f8dd e004 	ldr.w	lr, [sp, #4]
 8000218:	e9dd 2302 	ldrd	r2, r3, [sp, #8]
 800021c:	b004      	add	sp, #16
 800021e:	4770      	bx	lr

08000220 <__udivmoddi4>:
 8000220:	e92d 47f0 	stmdb	sp!, {r4, r5, r6, r7, r8, r9, sl, lr}
 8000224:	9d08      	ldr	r5, [sp, #32]
 8000226:	460c      	mov	r4, r1
 8000228:	2b00      	cmp	r3, #0
 800022a:	d14e      	bne.n	80002ca <__udivmoddi4+0xaa>
 800022c:	4694      	mov	ip, r2
 800022e:	458c      	cmp	ip, r1
 8000230:	4686      	mov	lr, r0
 8000232:	fab2 f282 	clz	r2, r2
 8000236:	d962      	bls.n	80002fe <__udivmoddi4+0xde>
 8000238:	b14a      	cbz	r2, 800024e <__udivmoddi4+0x2e>
 800023a:	f1c2 0320 	rsb	r3, r2, #32
 800023e:	4091      	lsls	r1, r2
 8000240:	fa20 f303 	lsr.w	r3, r0, r3
 8000244:	fa0c fc02 	lsl.w	ip, ip, r2
 8000248:	4319      	orrs	r1, r3
 800024a:	fa00 fe02 	lsl.w	lr, r0, r2
 800024e:	ea4f 471c 	mov.w	r7, ip, lsr #16
 8000252:	fa1f f68c 	uxth.w	r6, ip
 8000256:	fbb1 f4f7 	udiv	r4, r1, r7
 800025a:	ea4f 431e 	mov.w	r3, lr, lsr #16
 800025e:	fb07 1114 	mls	r1, r7, r4, r1
 8000262:	ea43 4301 	orr.w	r3, r3, r1, lsl #16
 8000266:	fb04 f106 	mul.w	r1, r4, r6
 800026a:	4299      	cmp	r1, r3
 800026c:	d90a      	bls.n	8000284 <__udivmoddi4+0x64>
 800026e:	eb1c 0303 	adds.w	r3, ip, r3
 8000272:	f104 30ff 	add.w	r0, r4, #4294967295	@ 0xffffffff
 8000276:	f080 8112 	bcs.w	800049e <__udivmoddi4+0x27e>
 800027a:	4299      	cmp	r1, r3
 800027c:	f240 810f 	bls.w	800049e <__udivmoddi4+0x27e>
 8000280:	3c02      	subs	r4, #2
 8000282:	4463      	add	r3, ip
 8000284:	1a59      	subs	r1, r3, r1
 8000286:	fa1f f38e 	uxth.w	r3, lr
 800028a:	fbb1 f0f7 	udiv	r0, r1, r7
 800028e:	fb07 1110 	mls	r1, r7, r0, r1
 8000292:	ea43 4301 	orr.w	r3, r3, r1, lsl #16
 8000296:	fb00 f606 	mul.w	r6, r0, r6
 800029a:	429e      	cmp	r6, r3
 800029c:	d90a      	bls.n	80002b4 <__udivmoddi4+0x94>
 800029e:	eb1c 0303 	adds.w	r3, ip, r3
 80002a2:	f100 31ff 	add.w	r1, r0, #4294967295	@ 0xffffffff
 80002a6:	f080 80fc 	bcs.w	80004a2 <__udivmoddi4+0x282>
 80002aa:	429e      	cmp	r6, r3
 80002ac:	f240 80f9 	bls.w	80004a2 <__udivmoddi4+0x282>
 80002b0:	4463      	add	r3, ip
 80002b2:	3802      	subs	r0, #2
 80002b4:	1b9b      	subs	r3, r3, r6
 80002b6:	ea40 4004 	orr.w	r0, r0, r4, lsl #16
 80002ba:	2100      	movs	r1, #0
 80002bc:	b11d      	cbz	r5, 80002c6 <__udivmoddi4+0xa6>
 80002be:	40d3      	lsrs	r3, r2
 80002c0:	2200      	movs	r2, #0
 80002c2:	e9c5 3200 	strd	r3, r2, [r5]
 80002c6:	e8bd 87f0 	ldmia.w	sp!, {r4, r5, r6, r7, r8, r9, sl, pc}
 80002ca:	428b      	cmp	r3, r1
 80002cc:	d905      	bls.n	80002da <__udivmoddi4+0xba>
 80002ce:	b10d      	cbz	r5, 80002d4 <__udivmoddi4+0xb4>
 80002d0:	e9c5 0100 	strd	r0, r1, [r5]
 80002d4:	2100      	movs	r1, #0
 80002d6:	4608      	mov	r0, r1
 80002d8:	e7f5      	b.n	80002c6 <__udivmoddi4+0xa6>
 80002da:	fab3 f183 	clz	r1, r3
 80002de:	2900      	cmp	r1, #0
 80002e0:	d146      	bne.n	8000370 <__udivmoddi4+0x150>
 80002e2:	42a3      	cmp	r3, r4
 80002e4:	d302      	bcc.n	80002ec <__udivmoddi4+0xcc>
 80002e6:	4290      	cmp	r0, r2
 80002e8:	f0c0 80f0 	bcc.w	80004cc <__udivmoddi4+0x2ac>
 80002ec:	1a86      	subs	r6, r0, r2
 80002ee:	eb64 0303 	sbc.w	r3, r4, r3
 80002f2:	2001      	movs	r0, #1
 80002f4:	2d00      	cmp	r5, #0
 80002f6:	d0e6      	beq.n	80002c6 <__udivmoddi4+0xa6>
 80002f8:	e9c5 6300 	strd	r6, r3, [r5]
 80002fc:	e7e3      	b.n	80002c6 <__udivmoddi4+0xa6>
 80002fe:	2a00      	cmp	r2, #0
 8000300:	f040 8090 	bne.w	8000424 <__udivmoddi4+0x204>
 8000304:	eba1 040c 	sub.w	r4, r1, ip
 8000308:	ea4f 481c 	mov.w	r8, ip, lsr #16
 800030c:	fa1f f78c 	uxth.w	r7, ip
 8000310:	2101      	movs	r1, #1
 8000312:	fbb4 f6f8 	udiv	r6, r4, r8
 8000316:	ea4f 431e 	mov.w	r3, lr, lsr #16
 800031a:	fb08 4416 	mls	r4, r8, r6, r4
 800031e:	ea43 4304 	orr.w	r3, r3, r4, lsl #16
 8000322:	fb07 f006 	mul.w	r0, r7, r6
 8000326:	4298      	cmp	r0, r3
 8000328:	d908      	bls.n	800033c <__udivmoddi4+0x11c>
 800032a:	eb1c 0303 	adds.w	r3, ip, r3
 800032e:	f106 34ff 	add.w	r4, r6, #4294967295	@ 0xffffffff
 8000332:	d202      	bcs.n	800033a <__udivmoddi4+0x11a>
 8000334:	4298      	cmp	r0, r3
 8000336:	f200 80cd 	bhi.w	80004d4 <__udivmoddi4+0x2b4>
 800033a:	4626      	mov	r6, r4
 800033c:	1a1c      	subs	r4, r3, r0
 800033e:	fa1f f38e 	uxth.w	r3, lr
 8000342:	fbb4 f0f8 	udiv	r0, r4, r8
 8000346:	fb08 4410 	mls	r4, r8, r0, r4
 800034a:	ea43 4304 	orr.w	r3, r3, r4, lsl #16
 800034e:	fb00 f707 	mul.w	r7, r0, r7
 8000352:	429f      	cmp	r7, r3
 8000354:	d908      	bls.n	8000368 <__udivmoddi4+0x148>
 8000356:	eb1c 0303 	adds.w	r3, ip, r3
 800035a:	f100 34ff 	add.w	r4, r0, #4294967295	@ 0xffffffff
 800035e:	d202      	bcs.n	8000366 <__udivmoddi4+0x146>
 8000360:	429f      	cmp	r7, r3
 8000362:	f200 80b0 	bhi.w	80004c6 <__udivmoddi4+0x2a6>
 8000366:	4620      	mov	r0, r4
 8000368:	1bdb      	subs	r3, r3, r7
 800036a:	ea40 4006 	orr.w	r0, r0, r6, lsl #16
 800036e:	e7a5      	b.n	80002bc <__udivmoddi4+0x9c>
 8000370:	f1c1 0620 	rsb	r6, r1, #32
 8000374:	408b      	lsls	r3, r1
 8000376:	fa22 f706 	lsr.w	r7, r2, r6
 800037a:	431f      	orrs	r7, r3
 800037c:	fa20 fc06 	lsr.w	ip, r0, r6
 8000380:	fa04 f301 	lsl.w	r3, r4, r1
 8000384:	ea43 030c 	orr.w	r3, r3, ip
 8000388:	40f4      	lsrs	r4, r6
 800038a:	fa00 f801 	lsl.w	r8, r0, r1
 800038e:	0c38      	lsrs	r0, r7, #16
 8000390:	ea4f 4913 	mov.w	r9, r3, lsr #16
 8000394:	fbb4 fef0 	udiv	lr, r4, r0
 8000398:	fa1f fc87 	uxth.w	ip, r7
 800039c:	fb00 441e 	mls	r4, r0, lr, r4
 80003a0:	ea49 4404 	orr.w	r4, r9, r4, lsl #16
 80003a4:	fb0e f90c 	mul.w	r9, lr, ip
 80003a8:	45a1      	cmp	r9, r4
 80003aa:	fa02 f201 	lsl.w	r2, r2, r1
 80003ae:	d90a      	bls.n	80003c6 <__udivmoddi4+0x1a6>
 80003b0:	193c      	adds	r4, r7, r4
 80003b2:	f10e 3aff 	add.w	sl, lr, #4294967295	@ 0xffffffff
 80003b6:	f080 8084 	bcs.w	80004c2 <__udivmoddi4+0x2a2>
 80003ba:	45a1      	cmp	r9, r4
 80003bc:	f240 8081 	bls.w	80004c2 <__udivmoddi4+0x2a2>
 80003c0:	f1ae 0e02 	sub.w	lr, lr, #2
 80003c4:	443c      	add	r4, r7
 80003c6:	eba4 0409 	sub.w	r4, r4, r9
 80003ca:	fa1f f983 	uxth.w	r9, r3
 80003ce:	fbb4 f3f0 	udiv	r3, r4, r0
 80003d2:	fb00 4413 	mls	r4, r0, r3, r4
 80003d6:	ea49 4404 	orr.w	r4, r9, r4, lsl #16
 80003da:	fb03 fc0c 	mul.w	ip, r3, ip
 80003de:	45a4      	cmp	ip, r4
 80003e0:	d907      	bls.n	80003f2 <__udivmoddi4+0x1d2>
 80003e2:	193c      	adds	r4, r7, r4
 80003e4:	f103 30ff 	add.w	r0, r3, #4294967295	@ 0xffffffff
 80003e8:	d267      	bcs.n	80004ba <__udivmoddi4+0x29a>
 80003ea:	45a4      	cmp	ip, r4
 80003ec:	d965      	bls.n	80004ba <__udivmoddi4+0x29a>
 80003ee:	3b02      	subs	r3, #2
 80003f0:	443c      	add	r4, r7
 80003f2:	ea43 400e 	orr.w	r0, r3, lr, lsl #16
 80003f6:	fba0 9302 	umull	r9, r3, r0, r2
 80003fa:	eba4 040c 	sub.w	r4, r4, ip
 80003fe:	429c      	cmp	r4, r3
 8000400:	46ce      	mov	lr, r9
 8000402:	469c      	mov	ip, r3
 8000404:	d351      	bcc.n	80004aa <__udivmoddi4+0x28a>
 8000406:	d04e      	beq.n	80004a6 <__udivmoddi4+0x286>
 8000408:	b155      	cbz	r5, 8000420 <__udivmoddi4+0x200>
 800040a:	ebb8 030e 	subs.w	r3, r8, lr
 800040e:	eb64 040c 	sbc.w	r4, r4, ip
 8000412:	fa04 f606 	lsl.w	r6, r4, r6
 8000416:	40cb      	lsrs	r3, r1
 8000418:	431e      	orrs	r6, r3
 800041a:	40cc      	lsrs	r4, r1
 800041c:	e9c5 6400 	strd	r6, r4, [r5]
 8000420:	2100      	movs	r1, #0
 8000422:	e750      	b.n	80002c6 <__udivmoddi4+0xa6>
 8000424:	f1c2 0320 	rsb	r3, r2, #32
 8000428:	fa20 f103 	lsr.w	r1, r0, r3
 800042c:	fa0c fc02 	lsl.w	ip, ip, r2
 8000430:	fa24 f303 	lsr.w	r3, r4, r3
 8000434:	4094      	lsls	r4, r2
 8000436:	430c      	orrs	r4, r1
 8000438:	ea4f 481c 	mov.w	r8, ip, lsr #16
 800043c:	fa00 fe02 	lsl.w	lr, r0, r2
 8000440:	fa1f f78c 	uxth.w	r7, ip
 8000444:	fbb3 f0f8 	udiv	r0, r3, r8
 8000448:	fb08 3110 	mls	r1, r8, r0, r3
 800044c:	0c23      	lsrs	r3, r4, #16
 800044e:	ea43 4301 	orr.w	r3, r3, r1, lsl #16
 8000452:	fb00 f107 	mul.w	r1, r0, r7
 8000456:	4299      	cmp	r1, r3
 8000458:	d908      	bls.n	800046c <__udivmoddi4+0x24c>
 800045a:	eb1c 0303 	adds.w	r3, ip, r3
 800045e:	f100 36ff 	add.w	r6, r0, #4294967295	@ 0xffffffff
 8000462:	d22c      	bcs.n	80004be <__udivmoddi4+0x29e>
 8000464:	4299      	cmp	r1, r3
 8000466:	d92a      	bls.n	80004be <__udivmoddi4+0x29e>
 8000468:	3802      	subs	r0, #2
 800046a:	4463      	add	r3, ip
 800046c:	1a5b      	subs	r3, r3, r1
 800046e:	b2a4      	uxth	r4, r4
 8000470:	fbb3 f1f8 	udiv	r1, r3, r8
 8000474:	fb08 3311 	mls	r3, r8, r1, r3
 8000478:	ea44 4403 	orr.w	r4, r4, r3, lsl #16
 800047c:	fb01 f307 	mul.w	r3, r1, r7
 8000480:	42a3      	cmp	r3, r4
 8000482:	d908      	bls.n	8000496 <__udivmoddi4+0x276>
 8000484:	eb1c 0404 	adds.w	r4, ip, r4
 8000488:	f101 36ff 	add.w	r6, r1, #4294967295	@ 0xffffffff
 800048c:	d213      	bcs.n	80004b6 <__udivmoddi4+0x296>
 800048e:	42a3      	cmp	r3, r4
 8000490:	d911      	bls.n	80004b6 <__udivmoddi4+0x296>
 8000492:	3902      	subs	r1, #2
 8000494:	4464      	add	r4, ip
 8000496:	1ae4      	subs	r4, r4, r3
 8000498:	ea41 4100 	orr.w	r1, r1, r0, lsl #16
 800049c:	e739      	b.n	8000312 <__udivmoddi4+0xf2>
 800049e:	4604      	mov	r4, r0
 80004a0:	e6f0      	b.n	8000284 <__udivmoddi4+0x64>
 80004a2:	4608      	mov	r0, r1
 80004a4:	e706      	b.n	80002b4 <__udivmoddi4+0x94>
 80004a6:	45c8      	cmp	r8, r9
 80004a8:	d2ae      	bcs.n	8000408 <__udivmoddi4+0x1e8>
 80004aa:	ebb9 0e02 	subs.w	lr, r9, r2
 80004ae:	eb63 0c07 	sbc.w	ip, r3, r7
 80004b2:	3801      	subs	r0, #1
 80004b4:	e7a8      	b.n	8000408 <__udivmoddi4+0x1e8>
 80004b6:	4631      	mov	r1, r6
 80004b8:	e7ed      	b.n	8000496 <__udivmoddi4+0x276>
 80004ba:	4603      	mov	r3, r0
 80004bc:	e799      	b.n	80003f2 <__udivmoddi4+0x1d2>
 80004be:	4630      	mov	r0, r6
 80004c0:	e7d4      	b.n	800046c <__udivmoddi4+0x24c>
 80004c2:	46d6      	mov	lr, sl
 80004c4:	e77f      	b.n	80003c6 <__udivmoddi4+0x1a6>
 80004c6:	4463      	add	r3, ip
 80004c8:	3802      	subs	r0, #2
 80004ca:	e74d      	b.n	8000368 <__udivmoddi4+0x148>
 80004cc:	4606      	mov	r6, r0
 80004ce:	4623      	mov	r3, r4
 80004d0:	4608      	mov	r0, r1
 80004d2:	e70f      	b.n	80002f4 <__udivmoddi4+0xd4>
 80004d4:	3e02      	subs	r6, #2
 80004d6:	4463      	add	r3, ip
 80004d8:	e730      	b.n	800033c <__udivmoddi4+0x11c>
 80004da:	bf00      	nop

080004dc <__aeabi_idiv0>:
 80004dc:	4770      	bx	lr
 80004de:	bf00      	nop

080004e0 <atraso_ms>:
 80004e0:	f643 6180 	movw	r1, #16000	@ 0x3e80
 80004e4:	f2c0 0100 	movt	r1, #0
 80004e8:	fb00 f001 	mul.w	r0, r0, r1

080004ec <r_ms>:
 80004ec:	3801      	subs	r0, #1
 80004ee:	d1fd      	bne.n	80004ec <r_ms>
 80004f0:	4770      	bx	lr
	...

080004f4 <vApplicationGetIdleTaskMemory>:
 80004f4:	4b03      	ldr	r3, [pc, #12]	@ (8000504 <vApplicationGetIdleTaskMemory+0x10>)
 80004f6:	6003      	str	r3, [r0, #0]
 80004f8:	4b03      	ldr	r3, [pc, #12]	@ (8000508 <vApplicationGetIdleTaskMemory+0x14>)
 80004fa:	600b      	str	r3, [r1, #0]
 80004fc:	2380      	movs	r3, #128	@ 0x80
 80004fe:	6013      	str	r3, [r2, #0]
 8000500:	4770      	bx	lr
 8000502:	bf00      	nop
 8000504:	20000374 	.word	0x20000374
 8000508:	20000174 	.word	0x20000174

0800050c <vTask2>:
 800050c:	b510      	push	{r4, lr}
 800050e:	4c04      	ldr	r4, [pc, #16]	@ (8000520 <vTask2+0x14>)
 8000510:	4620      	mov	r0, r4
 8000512:	f004 f8b9 	bl	8004688 <puts>
 8000516:	20c8      	movs	r0, #200	@ 0xc8
 8000518:	f7ff ffe2 	bl	80004e0 <atraso_ms>
 800051c:	e7f8      	b.n	8000510 <vTask2+0x4>
 800051e:	bf00      	nop
 8000520:	08004e74 	.word	0x08004e74

08000524 <vTask1>:
 8000524:	b510      	push	{r4, lr}
 8000526:	4c04      	ldr	r4, [pc, #16]	@ (8000538 <vTask1+0x14>)
 8000528:	4620      	mov	r0, r4
 800052a:	f004 f8ad 	bl	8004688 <puts>
 800052e:	20c8      	movs	r0, #200	@ 0xc8
 8000530:	f7ff ffd6 	bl	80004e0 <atraso_ms>
 8000534:	e7f8      	b.n	8000528 <vTask1+0x4>
 8000536:	bf00      	nop
 8000538:	08004e87 	.word	0x08004e87

0800053c <_write>:
 800053c:	b570      	push	{r4, r5, r6, lr}
 800053e:	460d      	mov	r5, r1
 8000540:	4614      	mov	r4, r2
 8000542:	b296      	uxth	r6, r2
 8000544:	4631      	mov	r1, r6
 8000546:	4628      	mov	r0, r5
 8000548:	f003 fdc2 	bl	80040d0 <CDC_Transmit_FS>
 800054c:	2800      	cmp	r0, #0
 800054e:	d1f9      	bne.n	8000544 <_write+0x8>
 8000550:	4620      	mov	r0, r4
 8000552:	bd70      	pop	{r4, r5, r6, pc}

08000554 <SystemClock_Config>:
 8000554:	b510      	push	{r4, lr}
 8000556:	b094      	sub	sp, #80	@ 0x50
 8000558:	2210      	movs	r2, #16
 800055a:	2100      	movs	r1, #0
 800055c:	a80a      	add	r0, sp, #40	@ 0x28
 800055e:	f004 f89b 	bl	8004698 <memset>
 8000562:	2214      	movs	r2, #20
 8000564:	2100      	movs	r1, #0
 8000566:	a803      	add	r0, sp, #12
 8000568:	f004 f896 	bl	8004698 <memset>
 800056c:	4b1f      	ldr	r3, [pc, #124]	@ (80005ec <SystemClock_Config+0x98>)
 800056e:	2100      	movs	r1, #0
 8000570:	9101      	str	r1, [sp, #4]
 8000572:	6c1a      	ldr	r2, [r3, #64]	@ 0x40
 8000574:	f042 5280 	orr.w	r2, r2, #268435456	@ 0x10000000
 8000578:	641a      	str	r2, [r3, #64]	@ 0x40
 800057a:	6c1b      	ldr	r3, [r3, #64]	@ 0x40
 800057c:	f003 5380 	and.w	r3, r3, #268435456	@ 0x10000000
 8000580:	9301      	str	r3, [sp, #4]
 8000582:	9b01      	ldr	r3, [sp, #4]
 8000584:	4b1a      	ldr	r3, [pc, #104]	@ (80005f0 <SystemClock_Config+0x9c>)
 8000586:	9102      	str	r1, [sp, #8]
 8000588:	681a      	ldr	r2, [r3, #0]
 800058a:	f442 4240 	orr.w	r2, r2, #49152	@ 0xc000
 800058e:	601a      	str	r2, [r3, #0]
 8000590:	681b      	ldr	r3, [r3, #0]
 8000592:	f403 4340 	and.w	r3, r3, #49152	@ 0xc000
 8000596:	9302      	str	r3, [sp, #8]
 8000598:	9b02      	ldr	r3, [sp, #8]
 800059a:	2201      	movs	r2, #1
 800059c:	f44f 3380 	mov.w	r3, #65536	@ 0x10000
 80005a0:	2402      	movs	r4, #2
 80005a2:	e9cd 2308 	strd	r2, r3, [sp, #32]
 80005a6:	f44f 0380 	mov.w	r3, #4194304	@ 0x400000
 80005aa:	e9cd 430e 	strd	r4, r3, [sp, #56]	@ 0x38
 80005ae:	2119      	movs	r1, #25
 80005b0:	23c0      	movs	r3, #192	@ 0xc0
 80005b2:	e9cd 1310 	strd	r1, r3, [sp, #64]	@ 0x40
 80005b6:	a808      	add	r0, sp, #32
 80005b8:	2304      	movs	r3, #4
 80005ba:	9412      	str	r4, [sp, #72]	@ 0x48
 80005bc:	9313      	str	r3, [sp, #76]	@ 0x4c
 80005be:	f001 f80b 	bl	80015d8 <HAL_RCC_OscConfig>
 80005c2:	b108      	cbz	r0, 80005c8 <SystemClock_Config+0x74>
 80005c4:	b672      	cpsid	i
 80005c6:	e7fe      	b.n	80005c6 <SystemClock_Config+0x72>
 80005c8:	230f      	movs	r3, #15
 80005ca:	e9cd 3403 	strd	r3, r4, [sp, #12]
 80005ce:	f44f 5380 	mov.w	r3, #4096	@ 0x1000
 80005d2:	e9cd 3006 	strd	r3, r0, [sp, #24]
 80005d6:	9005      	str	r0, [sp, #20]
 80005d8:	2103      	movs	r1, #3
 80005da:	a803      	add	r0, sp, #12
 80005dc:	f001 f9d8 	bl	8001990 <HAL_RCC_ClockConfig>
 80005e0:	b108      	cbz	r0, 80005e6 <SystemClock_Config+0x92>
 80005e2:	b672      	cpsid	i
 80005e4:	e7fe      	b.n	80005e4 <SystemClock_Config+0x90>
 80005e6:	b014      	add	sp, #80	@ 0x50
 80005e8:	bd10      	pop	{r4, pc}
 80005ea:	bf00      	nop
 80005ec:	40023800 	.word	0x40023800
 80005f0:	40007000 	.word	0x40007000

080005f4 <main>:
 80005f4:	b500      	push	{lr}
 80005f6:	b08b      	sub	sp, #44	@ 0x2c
 80005f8:	f000 f95e 	bl	80008b8 <HAL_Init>
 80005fc:	f7ff ffaa 	bl	8000554 <SystemClock_Config>
 8000600:	2214      	movs	r2, #20
 8000602:	2100      	movs	r1, #0
 8000604:	eb0d 0002 	add.w	r0, sp, r2
 8000608:	f004 f846 	bl	8004698 <memset>
 800060c:	2400      	movs	r4, #0
 800060e:	4a24      	ldr	r2, [pc, #144]	@ (80006a0 <main+0xac>)
 8000610:	9402      	str	r4, [sp, #8]
 8000612:	6b13      	ldr	r3, [r2, #48]	@ 0x30
 8000614:	4823      	ldr	r0, [pc, #140]	@ (80006a4 <main+0xb0>)
 8000616:	f043 0304 	orr.w	r3, r3, #4
 800061a:	6313      	str	r3, [r2, #48]	@ 0x30
 800061c:	6b13      	ldr	r3, [r2, #48]	@ 0x30
 800061e:	f003 0304 	and.w	r3, r3, #4
 8000622:	9302      	str	r3, [sp, #8]
 8000624:	9b02      	ldr	r3, [sp, #8]
 8000626:	9403      	str	r4, [sp, #12]
 8000628:	6b13      	ldr	r3, [r2, #48]	@ 0x30
 800062a:	f043 0380 	orr.w	r3, r3, #128	@ 0x80
 800062e:	6313      	str	r3, [r2, #48]	@ 0x30
 8000630:	6b13      	ldr	r3, [r2, #48]	@ 0x30
 8000632:	f003 0380 	and.w	r3, r3, #128	@ 0x80
 8000636:	9303      	str	r3, [sp, #12]
 8000638:	9b03      	ldr	r3, [sp, #12]
 800063a:	9404      	str	r4, [sp, #16]
 800063c:	6b13      	ldr	r3, [r2, #48]	@ 0x30
 800063e:	f043 0301 	orr.w	r3, r3, #1
 8000642:	6313      	str	r3, [r2, #48]	@ 0x30
 8000644:	6b13      	ldr	r3, [r2, #48]	@ 0x30
 8000646:	f003 0301 	and.w	r3, r3, #1
 800064a:	4622      	mov	r2, r4
 800064c:	9304      	str	r3, [sp, #16]
 800064e:	f44f 5100 	mov.w	r1, #8192	@ 0x2000
 8000652:	2501      	movs	r5, #1
 8000654:	9b04      	ldr	r3, [sp, #16]
 8000656:	f000 fa87 	bl	8000b68 <HAL_GPIO_WritePin>
 800065a:	f44f 5300 	mov.w	r3, #8192	@ 0x2000
 800065e:	4811      	ldr	r0, [pc, #68]	@ (80006a4 <main+0xb0>)
 8000660:	a905      	add	r1, sp, #20
 8000662:	e9cd 3505 	strd	r3, r5, [sp, #20]
 8000666:	e9cd 4407 	strd	r4, r4, [sp, #28]
 800066a:	f000 f9b7 	bl	80009dc <HAL_GPIO_Init>
 800066e:	f003 fcdf 	bl	8004030 <MX_USB_DEVICE_Init>
 8000672:	4b0d      	ldr	r3, [pc, #52]	@ (80006a8 <main+0xb4>)
 8000674:	490d      	ldr	r1, [pc, #52]	@ (80006ac <main+0xb8>)
 8000676:	480e      	ldr	r0, [pc, #56]	@ (80006b0 <main+0xbc>)
 8000678:	e9cd 5300 	strd	r5, r3, [sp]
 800067c:	f44f 7280 	mov.w	r2, #256	@ 0x100
 8000680:	4623      	mov	r3, r4
 8000682:	f003 f895 	bl	80037b0 <xTaskCreate>
 8000686:	4b0b      	ldr	r3, [pc, #44]	@ (80006b4 <main+0xc0>)
 8000688:	490b      	ldr	r1, [pc, #44]	@ (80006b8 <main+0xc4>)
 800068a:	480c      	ldr	r0, [pc, #48]	@ (80006bc <main+0xc8>)
 800068c:	e9cd 5300 	strd	r5, r3, [sp]
 8000690:	f44f 7280 	mov.w	r2, #256	@ 0x100
 8000694:	4623      	mov	r3, r4
 8000696:	f003 f88b 	bl	80037b0 <xTaskCreate>
 800069a:	f003 f8b7 	bl	800380c <vTaskStartScheduler>
 800069e:	e7fe      	b.n	800069e <main+0xaa>
 80006a0:	40023800 	.word	0x40023800
 80006a4:	40020800 	.word	0x40020800
 80006a8:	20000418 	.word	0x20000418
 80006ac:	08004e9a 	.word	0x08004e9a
 80006b0:	08000525 	.word	0x08000525
 80006b4:	20000414 	.word	0x20000414
 80006b8:	08004ea1 	.word	0x08004ea1
 80006bc:	0800050d 	.word	0x0800050d

080006c0 <HAL_TIM_PeriodElapsedCallback>:
 80006c0:	6802      	ldr	r2, [r0, #0]
 80006c2:	4b03      	ldr	r3, [pc, #12]	@ (80006d0 <HAL_TIM_PeriodElapsedCallback+0x10>)
 80006c4:	429a      	cmp	r2, r3
 80006c6:	d101      	bne.n	80006cc <HAL_TIM_PeriodElapsedCallback+0xc>
 80006c8:	f000 b910 	b.w	80008ec <HAL_IncTick>
 80006cc:	4770      	bx	lr
 80006ce:	bf00      	nop
 80006d0:	40000800 	.word	0x40000800

080006d4 <Error_Handler>:
 80006d4:	b672      	cpsid	i
 80006d6:	e7fe      	b.n	80006d6 <Error_Handler+0x2>

080006d8 <HAL_MspInit>:
 80006d8:	b082      	sub	sp, #8
 80006da:	4b0e      	ldr	r3, [pc, #56]	@ (8000714 <HAL_MspInit+0x3c>)
 80006dc:	2200      	movs	r2, #0
 80006de:	9200      	str	r2, [sp, #0]
 80006e0:	6c59      	ldr	r1, [r3, #68]	@ 0x44
 80006e2:	f441 4180 	orr.w	r1, r1, #16384	@ 0x4000
 80006e6:	6459      	str	r1, [r3, #68]	@ 0x44
 80006e8:	6c59      	ldr	r1, [r3, #68]	@ 0x44
 80006ea:	f401 4180 	and.w	r1, r1, #16384	@ 0x4000
 80006ee:	9100      	str	r1, [sp, #0]
 80006f0:	9900      	ldr	r1, [sp, #0]
 80006f2:	9201      	str	r2, [sp, #4]
 80006f4:	6c19      	ldr	r1, [r3, #64]	@ 0x40
 80006f6:	f041 5180 	orr.w	r1, r1, #268435456	@ 0x10000000
 80006fa:	6419      	str	r1, [r3, #64]	@ 0x40
 80006fc:	6c1b      	ldr	r3, [r3, #64]	@ 0x40
 80006fe:	f003 5380 	and.w	r3, r3, #268435456	@ 0x10000000
 8000702:	9301      	str	r3, [sp, #4]
 8000704:	9b01      	ldr	r3, [sp, #4]
 8000706:	210f      	movs	r1, #15
 8000708:	f06f 0001 	mvn.w	r0, #1
 800070c:	b002      	add	sp, #8
 800070e:	f000 b925 	b.w	800095c <HAL_NVIC_SetPriority>
 8000712:	bf00      	nop
 8000714:	40023800 	.word	0x40023800

08000718 <HAL_InitTick>:
 8000718:	b570      	push	{r4, r5, r6, lr}
 800071a:	b088      	sub	sp, #32
 800071c:	2300      	movs	r3, #0
 800071e:	9302      	str	r3, [sp, #8]
 8000720:	4b20      	ldr	r3, [pc, #128]	@ (80007a4 <HAL_InitTick+0x8c>)
 8000722:	6c1a      	ldr	r2, [r3, #64]	@ 0x40
 8000724:	f042 0204 	orr.w	r2, r2, #4
 8000728:	641a      	str	r2, [r3, #64]	@ 0x40
 800072a:	6c1b      	ldr	r3, [r3, #64]	@ 0x40
 800072c:	f003 0304 	and.w	r3, r3, #4
 8000730:	9302      	str	r3, [sp, #8]
 8000732:	4605      	mov	r5, r0
 8000734:	a901      	add	r1, sp, #4
 8000736:	a803      	add	r0, sp, #12
 8000738:	9b02      	ldr	r3, [sp, #8]
 800073a:	f001 f9d9 	bl	8001af0 <HAL_RCC_GetClockConfig>
 800073e:	9b06      	ldr	r3, [sp, #24]
 8000740:	bb4b      	cbnz	r3, 8000796 <HAL_InitTick+0x7e>
 8000742:	f001 f9c5 	bl	8001ad0 <HAL_RCC_GetPCLK1Freq>
 8000746:	4e18      	ldr	r6, [pc, #96]	@ (80007a8 <HAL_InitTick+0x90>)
 8000748:	4b18      	ldr	r3, [pc, #96]	@ (80007ac <HAL_InitTick+0x94>)
 800074a:	6033      	str	r3, [r6, #0]
 800074c:	f240 33e7 	movw	r3, #999	@ 0x3e7
 8000750:	60f3      	str	r3, [r6, #12]
 8000752:	4b17      	ldr	r3, [pc, #92]	@ (80007b0 <HAL_InitTick+0x98>)
 8000754:	fbb0 f3f3 	udiv	r3, r0, r3
 8000758:	3b01      	subs	r3, #1
 800075a:	6073      	str	r3, [r6, #4]
 800075c:	4630      	mov	r0, r6
 800075e:	2300      	movs	r3, #0
 8000760:	6133      	str	r3, [r6, #16]
 8000762:	60b3      	str	r3, [r6, #8]
 8000764:	61b3      	str	r3, [r6, #24]
 8000766:	f001 fb01 	bl	8001d6c <HAL_TIM_Base_Init>
 800076a:	4604      	mov	r4, r0
 800076c:	b980      	cbnz	r0, 8000790 <HAL_InitTick+0x78>
 800076e:	4630      	mov	r0, r6
 8000770:	f001 f9de 	bl	8001b30 <HAL_TIM_Base_Start_IT>
 8000774:	4604      	mov	r4, r0
 8000776:	b958      	cbnz	r0, 8000790 <HAL_InitTick+0x78>
 8000778:	201e      	movs	r0, #30
 800077a:	f000 f921 	bl	80009c0 <HAL_NVIC_EnableIRQ>
 800077e:	2d0f      	cmp	r5, #15
 8000780:	d80d      	bhi.n	800079e <HAL_InitTick+0x86>
 8000782:	4622      	mov	r2, r4
 8000784:	4629      	mov	r1, r5
 8000786:	201e      	movs	r0, #30
 8000788:	f000 f8e8 	bl	800095c <HAL_NVIC_SetPriority>
 800078c:	4b09      	ldr	r3, [pc, #36]	@ (80007b4 <HAL_InitTick+0x9c>)
 800078e:	601d      	str	r5, [r3, #0]
 8000790:	4620      	mov	r0, r4
 8000792:	b008      	add	sp, #32
 8000794:	bd70      	pop	{r4, r5, r6, pc}
 8000796:	f001 f99b 	bl	8001ad0 <HAL_RCC_GetPCLK1Freq>
 800079a:	0040      	lsls	r0, r0, #1
 800079c:	e7d3      	b.n	8000746 <HAL_InitTick+0x2e>
 800079e:	2401      	movs	r4, #1
 80007a0:	e7f6      	b.n	8000790 <HAL_InitTick+0x78>
 80007a2:	bf00      	nop
 80007a4:	40023800 	.word	0x40023800
 80007a8:	2000041c 	.word	0x2000041c
 80007ac:	40000800 	.word	0x40000800
 80007b0:	000f4240 	.word	0x000f4240
 80007b4:	20000008 	.word	0x20000008

080007b8 <NMI_Handler>:
 80007b8:	e7fe      	b.n	80007b8 <NMI_Handler>

080007ba <HardFault_Handler>:
 80007ba:	e7fe      	b.n	80007ba <HardFault_Handler>

080007bc <MemManage_Handler>:
 80007bc:	e7fe      	b.n	80007bc <MemManage_Handler>

080007be <BusFault_Handler>:
 80007be:	e7fe      	b.n	80007be <BusFault_Handler>

080007c0 <UsageFault_Handler>:
 80007c0:	e7fe      	b.n	80007c0 <UsageFault_Handler>

080007c2 <DebugMon_Handler>:
 80007c2:	4770      	bx	lr

080007c4 <TIM4_IRQHandler>:
 80007c4:	4801      	ldr	r0, [pc, #4]	@ (80007cc <TIM4_IRQHandler+0x8>)
 80007c6:	f001 b9e9 	b.w	8001b9c <HAL_TIM_IRQHandler>
 80007ca:	bf00      	nop
 80007cc:	2000041c 	.word	0x2000041c

080007d0 <OTG_FS_IRQHandler>:
 80007d0:	4801      	ldr	r0, [pc, #4]	@ (80007d8 <OTG_FS_IRQHandler+0x8>)
 80007d2:	f000 bb93 	b.w	8000efc <HAL_PCD_IRQHandler>
 80007d6:	bf00      	nop
 80007d8:	200058bc 	.word	0x200058bc

080007dc <_read>:
 80007dc:	b570      	push	{r4, r5, r6, lr}
 80007de:	460d      	mov	r5, r1
 80007e0:	4614      	mov	r4, r2
 80007e2:	460e      	mov	r6, r1
 80007e4:	1b73      	subs	r3, r6, r5
 80007e6:	429c      	cmp	r4, r3
 80007e8:	dc01      	bgt.n	80007ee <_read+0x12>
 80007ea:	4620      	mov	r0, r4
 80007ec:	bd70      	pop	{r4, r5, r6, pc}
 80007ee:	f3af 8000 	nop.w
 80007f2:	f806 0b01 	strb.w	r0, [r6], #1
 80007f6:	e7f5      	b.n	80007e4 <_read+0x8>

080007f8 <_close>:
 80007f8:	f04f 30ff 	mov.w	r0, #4294967295	@ 0xffffffff
 80007fc:	4770      	bx	lr

080007fe <_fstat>:
 80007fe:	f44f 5300 	mov.w	r3, #8192	@ 0x2000
 8000802:	604b      	str	r3, [r1, #4]
 8000804:	2000      	movs	r0, #0
 8000806:	4770      	bx	lr

08000808 <_isatty>:
 8000808:	2001      	movs	r0, #1
 800080a:	4770      	bx	lr

0800080c <_lseek>:
 800080c:	2000      	movs	r0, #0
 800080e:	4770      	bx	lr

08000810 <_sbrk>:
 8000810:	4a0b      	ldr	r2, [pc, #44]	@ (8000840 <_sbrk+0x30>)
 8000812:	6811      	ldr	r1, [r2, #0]
 8000814:	b510      	push	{r4, lr}
 8000816:	4603      	mov	r3, r0
 8000818:	b909      	cbnz	r1, 800081e <_sbrk+0xe>
 800081a:	490a      	ldr	r1, [pc, #40]	@ (8000844 <_sbrk+0x34>)
 800081c:	6011      	str	r1, [r2, #0]
 800081e:	6810      	ldr	r0, [r2, #0]
 8000820:	4909      	ldr	r1, [pc, #36]	@ (8000848 <_sbrk+0x38>)
 8000822:	4c0a      	ldr	r4, [pc, #40]	@ (800084c <_sbrk+0x3c>)
 8000824:	4403      	add	r3, r0
 8000826:	1b09      	subs	r1, r1, r4
 8000828:	428b      	cmp	r3, r1
 800082a:	d906      	bls.n	800083a <_sbrk+0x2a>
 800082c:	f003 ff92 	bl	8004754 <__errno>
 8000830:	230c      	movs	r3, #12
 8000832:	6003      	str	r3, [r0, #0]
 8000834:	f04f 30ff 	mov.w	r0, #4294967295	@ 0xffffffff
 8000838:	bd10      	pop	{r4, pc}
 800083a:	6013      	str	r3, [r2, #0]
 800083c:	e7fc      	b.n	8000838 <_sbrk+0x28>
 800083e:	bf00      	nop
 8000840:	20000464 	.word	0x20000464
 8000844:	20005ef0 	.word	0x20005ef0
 8000848:	20020000 	.word	0x20020000
 800084c:	00000400 	.word	0x00000400

08000850 <SystemInit>:
 8000850:	4a03      	ldr	r2, [pc, #12]	@ (8000860 <SystemInit+0x10>)
 8000852:	f8d2 3088 	ldr.w	r3, [r2, #136]	@ 0x88
 8000856:	f443 0370 	orr.w	r3, r3, #15728640	@ 0xf00000
 800085a:	f8c2 3088 	str.w	r3, [r2, #136]	@ 0x88
 800085e:	4770      	bx	lr
 8000860:	e000ed00 	.word	0xe000ed00

08000864 <Reset_Handler>:
 8000864:	f8df d034 	ldr.w	sp, [pc, #52]	@ 800089c <LoopFillZerobss+0xe>
 8000868:	f7ff fff2 	bl	8000850 <SystemInit>
 800086c:	480c      	ldr	r0, [pc, #48]	@ (80008a0 <LoopFillZerobss+0x12>)
 800086e:	490d      	ldr	r1, [pc, #52]	@ (80008a4 <LoopFillZerobss+0x16>)
 8000870:	4a0d      	ldr	r2, [pc, #52]	@ (80008a8 <LoopFillZerobss+0x1a>)
 8000872:	2300      	movs	r3, #0
 8000874:	e002      	b.n	800087c <LoopCopyDataInit>

08000876 <CopyDataInit>:
 8000876:	58d4      	ldr	r4, [r2, r3]
 8000878:	50c4      	str	r4, [r0, r3]
 800087a:	3304      	adds	r3, #4

0800087c <LoopCopyDataInit>:
 800087c:	18c4      	adds	r4, r0, r3
 800087e:	428c      	cmp	r4, r1
 8000880:	d3f9      	bcc.n	8000876 <CopyDataInit>
 8000882:	4a0a      	ldr	r2, [pc, #40]	@ (80008ac <LoopFillZerobss+0x1e>)
 8000884:	4c0a      	ldr	r4, [pc, #40]	@ (80008b0 <LoopFillZerobss+0x22>)
 8000886:	2300      	movs	r3, #0
 8000888:	e001      	b.n	800088e <LoopFillZerobss>

0800088a <FillZerobss>:
 800088a:	6013      	str	r3, [r2, #0]
 800088c:	3204      	adds	r2, #4

0800088e <LoopFillZerobss>:
 800088e:	42a2      	cmp	r2, r4
 8000890:	d3fb      	bcc.n	800088a <FillZerobss>
 8000892:	f003 ff65 	bl	8004760 <__libc_init_array>
 8000896:	f7ff fead 	bl	80005f4 <main>
 800089a:	4770      	bx	lr
 800089c:	20020000 	.word	0x20020000
 80008a0:	20000000 	.word	0x20000000
 80008a4:	20000158 	.word	0x20000158
 80008a8:	08004f18 	.word	0x08004f18
 80008ac:	20000158 	.word	0x20000158
 80008b0:	20005eec 	.word	0x20005eec

080008b4 <ADC_IRQHandler>:
 80008b4:	e7fe      	b.n	80008b4 <ADC_IRQHandler>
	...

080008b8 <HAL_Init>:
 80008b8:	b508      	push	{r3, lr}
 80008ba:	4b0b      	ldr	r3, [pc, #44]	@ (80008e8 <HAL_Init+0x30>)
 80008bc:	681a      	ldr	r2, [r3, #0]
 80008be:	f442 7200 	orr.w	r2, r2, #512	@ 0x200
 80008c2:	601a      	str	r2, [r3, #0]
 80008c4:	681a      	ldr	r2, [r3, #0]
 80008c6:	f442 6280 	orr.w	r2, r2, #1024	@ 0x400
 80008ca:	601a      	str	r2, [r3, #0]
 80008cc:	681a      	ldr	r2, [r3, #0]
 80008ce:	f442 7280 	orr.w	r2, r2, #256	@ 0x100
 80008d2:	601a      	str	r2, [r3, #0]
 80008d4:	2003      	movs	r0, #3
 80008d6:	f000 f82f 	bl	8000938 <HAL_NVIC_SetPriorityGrouping>
 80008da:	200f      	movs	r0, #15
 80008dc:	f7ff ff1c 	bl	8000718 <HAL_InitTick>
 80008e0:	f7ff fefa 	bl	80006d8 <HAL_MspInit>
 80008e4:	2000      	movs	r0, #0
 80008e6:	bd08      	pop	{r3, pc}
 80008e8:	40023c00 	.word	0x40023c00

080008ec <HAL_IncTick>:
 80008ec:	4a03      	ldr	r2, [pc, #12]	@ (80008fc <HAL_IncTick+0x10>)
 80008ee:	4b04      	ldr	r3, [pc, #16]	@ (8000900 <HAL_IncTick+0x14>)
 80008f0:	6811      	ldr	r1, [r2, #0]
 80008f2:	781b      	ldrb	r3, [r3, #0]
 80008f4:	440b      	add	r3, r1
 80008f6:	6013      	str	r3, [r2, #0]
 80008f8:	4770      	bx	lr
 80008fa:	bf00      	nop
 80008fc:	20000468 	.word	0x20000468
 8000900:	20000004 	.word	0x20000004

08000904 <HAL_GetTick>:
 8000904:	4b01      	ldr	r3, [pc, #4]	@ (800090c <HAL_GetTick+0x8>)
 8000906:	6818      	ldr	r0, [r3, #0]
 8000908:	4770      	bx	lr
 800090a:	bf00      	nop
 800090c:	20000468 	.word	0x20000468

08000910 <HAL_Delay>:
 8000910:	b538      	push	{r3, r4, r5, lr}
 8000912:	4604      	mov	r4, r0
 8000914:	f7ff fff6 	bl	8000904 <HAL_GetTick>
 8000918:	1c63      	adds	r3, r4, #1
 800091a:	bf1c      	itt	ne
 800091c:	4b05      	ldrne	r3, [pc, #20]	@ (8000934 <HAL_Delay+0x24>)
 800091e:	781b      	ldrbne	r3, [r3, #0]
 8000920:	4605      	mov	r5, r0
 8000922:	bf18      	it	ne
 8000924:	18e4      	addne	r4, r4, r3
 8000926:	f7ff ffed 	bl	8000904 <HAL_GetTick>
 800092a:	1b43      	subs	r3, r0, r5
 800092c:	42a3      	cmp	r3, r4
 800092e:	d3fa      	bcc.n	8000926 <HAL_Delay+0x16>
 8000930:	bd38      	pop	{r3, r4, r5, pc}
 8000932:	bf00      	nop
 8000934:	20000004 	.word	0x20000004

08000938 <HAL_NVIC_SetPriorityGrouping>:
 8000938:	4907      	ldr	r1, [pc, #28]	@ (8000958 <HAL_NVIC_SetPriorityGrouping+0x20>)
 800093a:	68ca      	ldr	r2, [r1, #12]
 800093c:	f422 62e0 	bic.w	r2, r2, #1792	@ 0x700
 8000940:	0203      	lsls	r3, r0, #8
 8000942:	0412      	lsls	r2, r2, #16
 8000944:	f403 63e0 	and.w	r3, r3, #1792	@ 0x700
 8000948:	0c12      	lsrs	r2, r2, #16
 800094a:	4313      	orrs	r3, r2
 800094c:	f043 63bf 	orr.w	r3, r3, #100139008	@ 0x5f80000
 8000950:	f443 3300 	orr.w	r3, r3, #131072	@ 0x20000
 8000954:	60cb      	str	r3, [r1, #12]
 8000956:	4770      	bx	lr
 8000958:	e000ed00 	.word	0xe000ed00

0800095c <HAL_NVIC_SetPriority>:
 800095c:	4b16      	ldr	r3, [pc, #88]	@ (80009b8 <HAL_NVIC_SetPriority+0x5c>)
 800095e:	b530      	push	{r4, r5, lr}
 8000960:	68dc      	ldr	r4, [r3, #12]
 8000962:	f3c4 2402 	ubfx	r4, r4, #8, #3
 8000966:	f1c4 0307 	rsb	r3, r4, #7
 800096a:	1d25      	adds	r5, r4, #4
 800096c:	2b04      	cmp	r3, #4
 800096e:	bf28      	it	cs
 8000970:	2304      	movcs	r3, #4
 8000972:	2d06      	cmp	r5, #6
 8000974:	f04f 35ff 	mov.w	r5, #4294967295	@ 0xffffffff
 8000978:	bf8c      	ite	hi
 800097a:	3c03      	subhi	r4, #3
 800097c:	2400      	movls	r4, #0
 800097e:	fa05 f303 	lsl.w	r3, r5, r3
 8000982:	ea21 0303 	bic.w	r3, r1, r3
 8000986:	40a5      	lsls	r5, r4
 8000988:	ea22 0205 	bic.w	r2, r2, r5
 800098c:	40a3      	lsls	r3, r4
 800098e:	2800      	cmp	r0, #0
 8000990:	ea43 0302 	orr.w	r3, r3, r2
 8000994:	bfac      	ite	ge
 8000996:	f100 4060 	addge.w	r0, r0, #3758096384	@ 0xe0000000
 800099a:	4a08      	ldrlt	r2, [pc, #32]	@ (80009bc <HAL_NVIC_SetPriority+0x60>)
 800099c:	ea4f 1303 	mov.w	r3, r3, lsl #4
 80009a0:	bfb8      	it	lt
 80009a2:	f000 000f 	andlt.w	r0, r0, #15
 80009a6:	b2db      	uxtb	r3, r3
 80009a8:	bfaa      	itet	ge
 80009aa:	f500 4061 	addge.w	r0, r0, #57600	@ 0xe100
 80009ae:	5413      	strblt	r3, [r2, r0]
 80009b0:	f880 3300 	strbge.w	r3, [r0, #768]	@ 0x300
 80009b4:	bd30      	pop	{r4, r5, pc}
 80009b6:	bf00      	nop
 80009b8:	e000ed00 	.word	0xe000ed00
 80009bc:	e000ed14 	.word	0xe000ed14

080009c0 <HAL_NVIC_EnableIRQ>:
 80009c0:	2800      	cmp	r0, #0
 80009c2:	db07      	blt.n	80009d4 <HAL_NVIC_EnableIRQ+0x14>
 80009c4:	4a04      	ldr	r2, [pc, #16]	@ (80009d8 <HAL_NVIC_EnableIRQ+0x18>)
 80009c6:	0941      	lsrs	r1, r0, #5
 80009c8:	2301      	movs	r3, #1
 80009ca:	f000 001f 	and.w	r0, r0, #31
 80009ce:	4083      	lsls	r3, r0
 80009d0:	f842 3021 	str.w	r3, [r2, r1, lsl #2]
 80009d4:	4770      	bx	lr
 80009d6:	bf00      	nop
 80009d8:	e000e100 	.word	0xe000e100

080009dc <HAL_GPIO_Init>:
 80009dc:	e92d 4ff7 	stmdb	sp!, {r0, r1, r2, r4, r5, r6, r7, r8, r9, sl, fp, lr}
 80009e0:	f8df 9180 	ldr.w	r9, [pc, #384]	@ 8000b64 <HAL_GPIO_Init+0x188>
 80009e4:	4a5d      	ldr	r2, [pc, #372]	@ (8000b5c <HAL_GPIO_Init+0x180>)
 80009e6:	2300      	movs	r3, #0
 80009e8:	680d      	ldr	r5, [r1, #0]
 80009ea:	2401      	movs	r4, #1
 80009ec:	409c      	lsls	r4, r3
 80009ee:	ea04 0605 	and.w	r6, r4, r5
 80009f2:	43ac      	bics	r4, r5
 80009f4:	f040 80a3 	bne.w	8000b3e <HAL_GPIO_Init+0x162>
 80009f8:	684d      	ldr	r5, [r1, #4]
 80009fa:	2703      	movs	r7, #3
 80009fc:	f005 0403 	and.w	r4, r5, #3
 8000a00:	ea4f 0843 	mov.w	r8, r3, lsl #1
 8000a04:	fa07 fc08 	lsl.w	ip, r7, r8
 8000a08:	1e67      	subs	r7, r4, #1
 8000a0a:	2f01      	cmp	r7, #1
 8000a0c:	ea6f 0c0c 	mvn.w	ip, ip
 8000a10:	d834      	bhi.n	8000a7c <HAL_GPIO_Init+0xa0>
 8000a12:	6887      	ldr	r7, [r0, #8]
 8000a14:	ea07 0e0c 	and.w	lr, r7, ip
 8000a18:	68cf      	ldr	r7, [r1, #12]
 8000a1a:	fa07 f708 	lsl.w	r7, r7, r8
 8000a1e:	ea47 070e 	orr.w	r7, r7, lr
 8000a22:	6087      	str	r7, [r0, #8]
 8000a24:	6847      	ldr	r7, [r0, #4]
 8000a26:	ea27 0e06 	bic.w	lr, r7, r6
 8000a2a:	f3c5 1700 	ubfx	r7, r5, #4, #1
 8000a2e:	409f      	lsls	r7, r3
 8000a30:	ea47 070e 	orr.w	r7, r7, lr
 8000a34:	6047      	str	r7, [r0, #4]
 8000a36:	68c7      	ldr	r7, [r0, #12]
 8000a38:	ea07 0e0c 	and.w	lr, r7, ip
 8000a3c:	688f      	ldr	r7, [r1, #8]
 8000a3e:	fa07 f708 	lsl.w	r7, r7, r8
 8000a42:	ea47 070e 	orr.w	r7, r7, lr
 8000a46:	2c02      	cmp	r4, #2
 8000a48:	60c7      	str	r7, [r0, #12]
 8000a4a:	d119      	bne.n	8000a80 <HAL_GPIO_Init+0xa4>
 8000a4c:	ea4f 0ad3 	mov.w	sl, r3, lsr #3
 8000a50:	eb00 0a8a 	add.w	sl, r0, sl, lsl #2
 8000a54:	f003 0b07 	and.w	fp, r3, #7
 8000a58:	f8da 7020 	ldr.w	r7, [sl, #32]
 8000a5c:	ea4f 0b8b 	mov.w	fp, fp, lsl #2
 8000a60:	f04f 0e0f 	mov.w	lr, #15
 8000a64:	fa0e fe0b 	lsl.w	lr, lr, fp
 8000a68:	ea27 0e0e 	bic.w	lr, r7, lr
 8000a6c:	690f      	ldr	r7, [r1, #16]
 8000a6e:	fa07 f70b 	lsl.w	r7, r7, fp
 8000a72:	ea47 070e 	orr.w	r7, r7, lr
 8000a76:	f8ca 7020 	str.w	r7, [sl, #32]
 8000a7a:	e001      	b.n	8000a80 <HAL_GPIO_Init+0xa4>
 8000a7c:	2c03      	cmp	r4, #3
 8000a7e:	d1da      	bne.n	8000a36 <HAL_GPIO_Init+0x5a>
 8000a80:	6807      	ldr	r7, [r0, #0]
 8000a82:	fa04 f408 	lsl.w	r4, r4, r8
 8000a86:	ea07 070c 	and.w	r7, r7, ip
 8000a8a:	433c      	orrs	r4, r7
 8000a8c:	f415 3f40 	tst.w	r5, #196608	@ 0x30000
 8000a90:	6004      	str	r4, [r0, #0]
 8000a92:	d054      	beq.n	8000b3e <HAL_GPIO_Init+0x162>
 8000a94:	2400      	movs	r4, #0
 8000a96:	9401      	str	r4, [sp, #4]
 8000a98:	f8d9 4044 	ldr.w	r4, [r9, #68]	@ 0x44
 8000a9c:	f444 4480 	orr.w	r4, r4, #16384	@ 0x4000
 8000aa0:	f8c9 4044 	str.w	r4, [r9, #68]	@ 0x44
 8000aa4:	f8d9 4044 	ldr.w	r4, [r9, #68]	@ 0x44
 8000aa8:	f023 0703 	bic.w	r7, r3, #3
 8000aac:	f107 4780 	add.w	r7, r7, #1073741824	@ 0x40000000
 8000ab0:	f404 4480 	and.w	r4, r4, #16384	@ 0x4000
 8000ab4:	f507 379c 	add.w	r7, r7, #79872	@ 0x13800
 8000ab8:	9401      	str	r4, [sp, #4]
 8000aba:	f003 0c03 	and.w	ip, r3, #3
 8000abe:	9c01      	ldr	r4, [sp, #4]
 8000ac0:	f8d7 e008 	ldr.w	lr, [r7, #8]
 8000ac4:	ea4f 0c8c 	mov.w	ip, ip, lsl #2
 8000ac8:	240f      	movs	r4, #15
 8000aca:	fa04 f40c 	lsl.w	r4, r4, ip
 8000ace:	ea2e 0e04 	bic.w	lr, lr, r4
 8000ad2:	4c23      	ldr	r4, [pc, #140]	@ (8000b60 <HAL_GPIO_Init+0x184>)
 8000ad4:	42a0      	cmp	r0, r4
 8000ad6:	d039      	beq.n	8000b4c <HAL_GPIO_Init+0x170>
 8000ad8:	f504 6480 	add.w	r4, r4, #1024	@ 0x400
 8000adc:	42a0      	cmp	r0, r4
 8000ade:	d037      	beq.n	8000b50 <HAL_GPIO_Init+0x174>
 8000ae0:	f504 6480 	add.w	r4, r4, #1024	@ 0x400
 8000ae4:	42a0      	cmp	r0, r4
 8000ae6:	d035      	beq.n	8000b54 <HAL_GPIO_Init+0x178>
 8000ae8:	f504 6480 	add.w	r4, r4, #1024	@ 0x400
 8000aec:	42a0      	cmp	r0, r4
 8000aee:	d033      	beq.n	8000b58 <HAL_GPIO_Init+0x17c>
 8000af0:	f504 6480 	add.w	r4, r4, #1024	@ 0x400
 8000af4:	42a0      	cmp	r0, r4
 8000af6:	bf14      	ite	ne
 8000af8:	2407      	movne	r4, #7
 8000afa:	2404      	moveq	r4, #4
 8000afc:	fa04 f40c 	lsl.w	r4, r4, ip
 8000b00:	ea44 040e 	orr.w	r4, r4, lr
 8000b04:	60bc      	str	r4, [r7, #8]
 8000b06:	6894      	ldr	r4, [r2, #8]
 8000b08:	43f7      	mvns	r7, r6
 8000b0a:	f415 1f80 	tst.w	r5, #1048576	@ 0x100000
 8000b0e:	bf0c      	ite	eq
 8000b10:	403c      	andeq	r4, r7
 8000b12:	4334      	orrne	r4, r6
 8000b14:	6094      	str	r4, [r2, #8]
 8000b16:	68d4      	ldr	r4, [r2, #12]
 8000b18:	f415 1f00 	tst.w	r5, #2097152	@ 0x200000
 8000b1c:	bf0c      	ite	eq
 8000b1e:	403c      	andeq	r4, r7
 8000b20:	4334      	orrne	r4, r6
 8000b22:	60d4      	str	r4, [r2, #12]
 8000b24:	6854      	ldr	r4, [r2, #4]
 8000b26:	f415 3f00 	tst.w	r5, #131072	@ 0x20000
 8000b2a:	bf0c      	ite	eq
 8000b2c:	403c      	andeq	r4, r7
 8000b2e:	4334      	orrne	r4, r6
 8000b30:	6054      	str	r4, [r2, #4]
 8000b32:	6814      	ldr	r4, [r2, #0]
 8000b34:	03ed      	lsls	r5, r5, #15
 8000b36:	bf54      	ite	pl
 8000b38:	403c      	andpl	r4, r7
 8000b3a:	4334      	orrmi	r4, r6
 8000b3c:	6014      	str	r4, [r2, #0]
 8000b3e:	3301      	adds	r3, #1
 8000b40:	2b10      	cmp	r3, #16
 8000b42:	f47f af51 	bne.w	80009e8 <HAL_GPIO_Init+0xc>
 8000b46:	b003      	add	sp, #12
 8000b48:	e8bd 8ff0 	ldmia.w	sp!, {r4, r5, r6, r7, r8, r9, sl, fp, pc}
 8000b4c:	2400      	movs	r4, #0
 8000b4e:	e7d5      	b.n	8000afc <HAL_GPIO_Init+0x120>
 8000b50:	2401      	movs	r4, #1
 8000b52:	e7d3      	b.n	8000afc <HAL_GPIO_Init+0x120>
 8000b54:	2402      	movs	r4, #2
 8000b56:	e7d1      	b.n	8000afc <HAL_GPIO_Init+0x120>
 8000b58:	2403      	movs	r4, #3
 8000b5a:	e7cf      	b.n	8000afc <HAL_GPIO_Init+0x120>
 8000b5c:	40013c00 	.word	0x40013c00
 8000b60:	40020000 	.word	0x40020000
 8000b64:	40023800 	.word	0x40023800

08000b68 <HAL_GPIO_WritePin>:
 8000b68:	b10a      	cbz	r2, 8000b6e <HAL_GPIO_WritePin+0x6>
 8000b6a:	6181      	str	r1, [r0, #24]
 8000b6c:	4770      	bx	lr
 8000b6e:	0409      	lsls	r1, r1, #16
 8000b70:	e7fb      	b.n	8000b6a <HAL_GPIO_WritePin+0x2>

08000b72 <HAL_PCD_Init>:
 8000b72:	b5f7      	push	{r0, r1, r2, r4, r5, r6, r7, lr}
 8000b74:	4604      	mov	r4, r0
 8000b76:	b310      	cbz	r0, 8000bbe <HAL_PCD_Init+0x4c>
 8000b78:	f890 3495 	ldrb.w	r3, [r0, #1173]	@ 0x495
 8000b7c:	6805      	ldr	r5, [r0, #0]
 8000b7e:	f003 02ff 	and.w	r2, r3, #255	@ 0xff
 8000b82:	b91b      	cbnz	r3, 8000b8c <HAL_PCD_Init+0x1a>
 8000b84:	f880 2494 	strb.w	r2, [r0, #1172]	@ 0x494
 8000b88:	f003 fb30 	bl	80041ec <HAL_PCD_MspInit>
 8000b8c:	2303      	movs	r3, #3
 8000b8e:	f1b5 4fa0 	cmp.w	r5, #1342177280	@ 0x50000000
 8000b92:	f884 3495 	strb.w	r3, [r4, #1173]	@ 0x495
 8000b96:	bf04      	itt	eq
 8000b98:	2300      	moveq	r3, #0
 8000b9a:	71a3      	strbeq	r3, [r4, #6]
 8000b9c:	6820      	ldr	r0, [r4, #0]
 8000b9e:	f001 f9f1 	bl	8001f84 <USB_DisableGlobalInt>
 8000ba2:	7c23      	ldrb	r3, [r4, #16]
 8000ba4:	f88d 3000 	strb.w	r3, [sp]
 8000ba8:	1d25      	adds	r5, r4, #4
 8000baa:	e895 000e 	ldmia.w	r5, {r1, r2, r3}
 8000bae:	6820      	ldr	r0, [r4, #0]
 8000bb0:	f001 f92d 	bl	8001e0e <USB_CoreInit>
 8000bb4:	4601      	mov	r1, r0
 8000bb6:	b130      	cbz	r0, 8000bc6 <HAL_PCD_Init+0x54>
 8000bb8:	2302      	movs	r3, #2
 8000bba:	f884 3495 	strb.w	r3, [r4, #1173]	@ 0x495
 8000bbe:	2501      	movs	r5, #1
 8000bc0:	4628      	mov	r0, r5
 8000bc2:	b003      	add	sp, #12
 8000bc4:	bdf0      	pop	{r4, r5, r6, r7, pc}
 8000bc6:	6820      	ldr	r0, [r4, #0]
 8000bc8:	f001 f9e2 	bl	8001f90 <USB_SetCurrentMode>
 8000bcc:	2800      	cmp	r0, #0
 8000bce:	d1f3      	bne.n	8000bb8 <HAL_PCD_Init+0x46>
 8000bd0:	7926      	ldrb	r6, [r4, #4]
 8000bd2:	f104 0314 	add.w	r3, r4, #20
 8000bd6:	2701      	movs	r7, #1
 8000bd8:	4602      	mov	r2, r0
 8000bda:	b2c1      	uxtb	r1, r0
 8000bdc:	428e      	cmp	r6, r1
 8000bde:	f103 0324 	add.w	r3, r3, #36	@ 0x24
 8000be2:	d81b      	bhi.n	8000c1c <HAL_PCD_Init+0xaa>
 8000be4:	2100      	movs	r1, #0
 8000be6:	f504 7315 	add.w	r3, r4, #596	@ 0x254
 8000bea:	460a      	mov	r2, r1
 8000bec:	b2c8      	uxtb	r0, r1
 8000bee:	4286      	cmp	r6, r0
 8000bf0:	f103 0324 	add.w	r3, r3, #36	@ 0x24
 8000bf4:	d820      	bhi.n	8000c38 <HAL_PCD_Init+0xc6>
 8000bf6:	7c23      	ldrb	r3, [r4, #16]
 8000bf8:	f88d 3000 	strb.w	r3, [sp]
 8000bfc:	e895 000e 	ldmia.w	r5, {r1, r2, r3}
 8000c00:	6820      	ldr	r0, [r4, #0]
 8000c02:	f001 fa41 	bl	8002088 <USB_DevInit>
 8000c06:	4605      	mov	r5, r0
 8000c08:	2800      	cmp	r0, #0
 8000c0a:	d1d5      	bne.n	8000bb8 <HAL_PCD_Init+0x46>
 8000c0c:	2301      	movs	r3, #1
 8000c0e:	7460      	strb	r0, [r4, #17]
 8000c10:	6820      	ldr	r0, [r4, #0]
 8000c12:	f884 3495 	strb.w	r3, [r4, #1173]	@ 0x495
 8000c16:	f001 fd7b 	bl	8002710 <USB_DevDisconnect>
 8000c1a:	e7d1      	b.n	8000bc0 <HAL_PCD_Init+0x4e>
 8000c1c:	f823 0c0a 	strh.w	r0, [r3, #-10]
 8000c20:	e943 2207 	strd	r2, r2, [r3, #-28]
 8000c24:	f803 7c23 	strb.w	r7, [r3, #-35]
 8000c28:	f803 1c24 	strb.w	r1, [r3, #-36]
 8000c2c:	f803 2c20 	strb.w	r2, [r3, #-32]
 8000c30:	f843 2c14 	str.w	r2, [r3, #-20]
 8000c34:	3001      	adds	r0, #1
 8000c36:	e7d0      	b.n	8000bda <HAL_PCD_Init+0x68>
 8000c38:	e943 2207 	strd	r2, r2, [r3, #-28]
 8000c3c:	f803 2c23 	strb.w	r2, [r3, #-35]
 8000c40:	f803 0c24 	strb.w	r0, [r3, #-36]
 8000c44:	f803 2c20 	strb.w	r2, [r3, #-32]
 8000c48:	f843 2c14 	str.w	r2, [r3, #-20]
 8000c4c:	3101      	adds	r1, #1
 8000c4e:	e7cd      	b.n	8000bec <HAL_PCD_Init+0x7a>

08000c50 <HAL_PCD_Start>:
 8000c50:	b510      	push	{r4, lr}
 8000c52:	4604      	mov	r4, r0
 8000c54:	6800      	ldr	r0, [r0, #0]
 8000c56:	f894 3494 	ldrb.w	r3, [r4, #1172]	@ 0x494
 8000c5a:	2b01      	cmp	r3, #1
 8000c5c:	d015      	beq.n	8000c8a <HAL_PCD_Start+0x3a>
 8000c5e:	2301      	movs	r3, #1
 8000c60:	f884 3494 	strb.w	r3, [r4, #1172]	@ 0x494
 8000c64:	68c3      	ldr	r3, [r0, #12]
 8000c66:	065b      	lsls	r3, r3, #25
 8000c68:	d506      	bpl.n	8000c78 <HAL_PCD_Start+0x28>
 8000c6a:	7b63      	ldrb	r3, [r4, #13]
 8000c6c:	2b01      	cmp	r3, #1
 8000c6e:	bf02      	ittt	eq
 8000c70:	6b83      	ldreq	r3, [r0, #56]	@ 0x38
 8000c72:	f443 3380 	orreq.w	r3, r3, #65536	@ 0x10000
 8000c76:	6383      	streq	r3, [r0, #56]	@ 0x38
 8000c78:	f001 f97e 	bl	8001f78 <USB_EnableGlobalInt>
 8000c7c:	6820      	ldr	r0, [r4, #0]
 8000c7e:	f001 fd39 	bl	80026f4 <USB_DevConnect>
 8000c82:	2000      	movs	r0, #0
 8000c84:	f884 0494 	strb.w	r0, [r4, #1172]	@ 0x494
 8000c88:	bd10      	pop	{r4, pc}
 8000c8a:	2002      	movs	r0, #2
 8000c8c:	e7fc      	b.n	8000c88 <HAL_PCD_Start+0x38>

08000c8e <HAL_PCD_SetAddress>:
 8000c8e:	b510      	push	{r4, lr}
 8000c90:	f890 2494 	ldrb.w	r2, [r0, #1172]	@ 0x494
 8000c94:	2a01      	cmp	r2, #1
 8000c96:	4604      	mov	r4, r0
 8000c98:	d00a      	beq.n	8000cb0 <HAL_PCD_SetAddress+0x22>
 8000c9a:	2201      	movs	r2, #1
 8000c9c:	f880 2494 	strb.w	r2, [r0, #1172]	@ 0x494
 8000ca0:	7441      	strb	r1, [r0, #17]
 8000ca2:	6800      	ldr	r0, [r0, #0]
 8000ca4:	f001 fd16 	bl	80026d4 <USB_SetDevAddress>
 8000ca8:	2000      	movs	r0, #0
 8000caa:	f884 0494 	strb.w	r0, [r4, #1172]	@ 0x494
 8000cae:	bd10      	pop	{r4, pc}
 8000cb0:	2002      	movs	r0, #2
 8000cb2:	e7fc      	b.n	8000cae <HAL_PCD_SetAddress+0x20>

08000cb4 <HAL_PCD_EP_Open>:
 8000cb4:	b570      	push	{r4, r5, r6, lr}
 8000cb6:	f001 060f 	and.w	r6, r1, #15
 8000cba:	eb06 04c6 	add.w	r4, r6, r6, lsl #3
 8000cbe:	f011 0f80 	tst.w	r1, #128	@ 0x80
 8000cc2:	4605      	mov	r5, r0
 8000cc4:	ea4f 0484 	mov.w	r4, r4, lsl #2
 8000cc8:	f04f 0024 	mov.w	r0, #36	@ 0x24
 8000ccc:	d020      	beq.n	8000d10 <HAL_PCD_EP_Open+0x5c>
 8000cce:	fb00 5006 	mla	r0, r0, r6, r5
 8000cd2:	f104 0114 	add.w	r1, r4, #20
 8000cd6:	2401      	movs	r4, #1
 8000cd8:	4429      	add	r1, r5
 8000cda:	7544      	strb	r4, [r0, #21]
 8000cdc:	f3c2 020a 	ubfx	r2, r2, #0, #11
 8000ce0:	608a      	str	r2, [r1, #8]
 8000ce2:	784a      	ldrb	r2, [r1, #1]
 8000ce4:	700e      	strb	r6, [r1, #0]
 8000ce6:	710b      	strb	r3, [r1, #4]
 8000ce8:	b102      	cbz	r2, 8000cec <HAL_PCD_EP_Open+0x38>
 8000cea:	834e      	strh	r6, [r1, #26]
 8000cec:	2b02      	cmp	r3, #2
 8000cee:	bf04      	itt	eq
 8000cf0:	2300      	moveq	r3, #0
 8000cf2:	714b      	strbeq	r3, [r1, #5]
 8000cf4:	f895 3494 	ldrb.w	r3, [r5, #1172]	@ 0x494
 8000cf8:	2b01      	cmp	r3, #1
 8000cfa:	d012      	beq.n	8000d22 <HAL_PCD_EP_Open+0x6e>
 8000cfc:	2301      	movs	r3, #1
 8000cfe:	6828      	ldr	r0, [r5, #0]
 8000d00:	f885 3494 	strb.w	r3, [r5, #1172]	@ 0x494
 8000d04:	f001 fa85 	bl	8002212 <USB_ActivateEndpoint>
 8000d08:	2000      	movs	r0, #0
 8000d0a:	f885 0494 	strb.w	r0, [r5, #1172]	@ 0x494
 8000d0e:	bd70      	pop	{r4, r5, r6, pc}
 8000d10:	fb00 5006 	mla	r0, r0, r6, r5
 8000d14:	f504 7115 	add.w	r1, r4, #596	@ 0x254
 8000d18:	2400      	movs	r4, #0
 8000d1a:	4429      	add	r1, r5
 8000d1c:	f880 4255 	strb.w	r4, [r0, #597]	@ 0x255
 8000d20:	e7dc      	b.n	8000cdc <HAL_PCD_EP_Open+0x28>
 8000d22:	2002      	movs	r0, #2
 8000d24:	e7f3      	b.n	8000d0e <HAL_PCD_EP_Open+0x5a>

08000d26 <HAL_PCD_EP_Close>:
 8000d26:	b510      	push	{r4, lr}
 8000d28:	4604      	mov	r4, r0
 8000d2a:	f001 000f 	and.w	r0, r1, #15
 8000d2e:	eb00 03c0 	add.w	r3, r0, r0, lsl #3
 8000d32:	f011 0f80 	tst.w	r1, #128	@ 0x80
 8000d36:	ea4f 0383 	mov.w	r3, r3, lsl #2
 8000d3a:	f04f 0224 	mov.w	r2, #36	@ 0x24
 8000d3e:	d015      	beq.n	8000d6c <HAL_PCD_EP_Close+0x46>
 8000d40:	fb02 4200 	mla	r2, r2, r0, r4
 8000d44:	f103 0114 	add.w	r1, r3, #20
 8000d48:	2301      	movs	r3, #1
 8000d4a:	4421      	add	r1, r4
 8000d4c:	7553      	strb	r3, [r2, #21]
 8000d4e:	7008      	strb	r0, [r1, #0]
 8000d50:	f894 3494 	ldrb.w	r3, [r4, #1172]	@ 0x494
 8000d54:	2b01      	cmp	r3, #1
 8000d56:	d012      	beq.n	8000d7e <HAL_PCD_EP_Close+0x58>
 8000d58:	2301      	movs	r3, #1
 8000d5a:	6820      	ldr	r0, [r4, #0]
 8000d5c:	f884 3494 	strb.w	r3, [r4, #1172]	@ 0x494
 8000d60:	f001 fa96 	bl	8002290 <USB_DeactivateEndpoint>
 8000d64:	2000      	movs	r0, #0
 8000d66:	f884 0494 	strb.w	r0, [r4, #1172]	@ 0x494
 8000d6a:	bd10      	pop	{r4, pc}
 8000d6c:	fb02 4200 	mla	r2, r2, r0, r4
 8000d70:	f503 7115 	add.w	r1, r3, #596	@ 0x254
 8000d74:	2300      	movs	r3, #0
 8000d76:	4421      	add	r1, r4
 8000d78:	f882 3255 	strb.w	r3, [r2, #597]	@ 0x255
 8000d7c:	e7e7      	b.n	8000d4e <HAL_PCD_EP_Close+0x28>
 8000d7e:	2002      	movs	r0, #2
 8000d80:	e7f3      	b.n	8000d6a <HAL_PCD_EP_Close+0x44>

08000d82 <HAL_PCD_EP_Receive>:
 8000d82:	b570      	push	{r4, r5, r6, lr}
 8000d84:	f001 050f 	and.w	r5, r1, #15
 8000d88:	2424      	movs	r4, #36	@ 0x24
 8000d8a:	fb04 0105 	mla	r1, r4, r5, r0
 8000d8e:	fb04 0405 	mla	r4, r4, r5, r0
 8000d92:	e9c4 2398 	strd	r2, r3, [r4, #608]	@ 0x260
 8000d96:	2300      	movs	r3, #0
 8000d98:	f8c4 3268 	str.w	r3, [r4, #616]	@ 0x268
 8000d9c:	f884 3255 	strb.w	r3, [r4, #597]	@ 0x255
 8000da0:	f884 5254 	strb.w	r5, [r4, #596]	@ 0x254
 8000da4:	4616      	mov	r6, r2
 8000da6:	7982      	ldrb	r2, [r0, #6]
 8000da8:	6800      	ldr	r0, [r0, #0]
 8000daa:	2a01      	cmp	r2, #1
 8000dac:	f501 7115 	add.w	r1, r1, #596	@ 0x254
 8000db0:	bf08      	it	eq
 8000db2:	f8c4 6270 	streq.w	r6, [r4, #624]	@ 0x270
 8000db6:	f001 fb17 	bl	80023e8 <USB_EPStartXfer>
 8000dba:	2000      	movs	r0, #0
 8000dbc:	bd70      	pop	{r4, r5, r6, pc}

08000dbe <HAL_PCD_EP_GetRxCount>:
 8000dbe:	f001 010f 	and.w	r1, r1, #15
 8000dc2:	2324      	movs	r3, #36	@ 0x24
 8000dc4:	fb03 0001 	mla	r0, r3, r1, r0
 8000dc8:	f8d0 0268 	ldr.w	r0, [r0, #616]	@ 0x268
 8000dcc:	4770      	bx	lr

08000dce <HAL_PCD_EP_Transmit>:
 8000dce:	b570      	push	{r4, r5, r6, lr}
 8000dd0:	f001 050f 	and.w	r5, r1, #15
 8000dd4:	2424      	movs	r4, #36	@ 0x24
 8000dd6:	fb04 0105 	mla	r1, r4, r5, r0
 8000dda:	fb04 0405 	mla	r4, r4, r5, r0
 8000dde:	e9c4 2308 	strd	r2, r3, [r4, #32]
 8000de2:	2300      	movs	r3, #0
 8000de4:	62a3      	str	r3, [r4, #40]	@ 0x28
 8000de6:	2301      	movs	r3, #1
 8000de8:	7563      	strb	r3, [r4, #21]
 8000dea:	7525      	strb	r5, [r4, #20]
 8000dec:	4616      	mov	r6, r2
 8000dee:	7982      	ldrb	r2, [r0, #6]
 8000df0:	6800      	ldr	r0, [r0, #0]
 8000df2:	429a      	cmp	r2, r3
 8000df4:	f101 0114 	add.w	r1, r1, #20
 8000df8:	bf08      	it	eq
 8000dfa:	6326      	streq	r6, [r4, #48]	@ 0x30
 8000dfc:	f001 faf4 	bl	80023e8 <USB_EPStartXfer>
 8000e00:	2000      	movs	r0, #0
 8000e02:	bd70      	pop	{r4, r5, r6, pc}

08000e04 <HAL_PCD_EP_SetStall>:
 8000e04:	b538      	push	{r3, r4, r5, lr}
 8000e06:	7903      	ldrb	r3, [r0, #4]
 8000e08:	f001 050f 	and.w	r5, r1, #15
 8000e0c:	42ab      	cmp	r3, r5
 8000e0e:	4604      	mov	r4, r0
 8000e10:	d32b      	bcc.n	8000e6a <HAL_PCD_EP_SetStall+0x66>
 8000e12:	f011 0f80 	tst.w	r1, #128	@ 0x80
 8000e16:	f04f 0024 	mov.w	r0, #36	@ 0x24
 8000e1a:	d01d      	beq.n	8000e58 <HAL_PCD_EP_SetStall+0x54>
 8000e1c:	fb00 4105 	mla	r1, r0, r5, r4
 8000e20:	fb00 4005 	mla	r0, r0, r5, r4
 8000e24:	2301      	movs	r3, #1
 8000e26:	3114      	adds	r1, #20
 8000e28:	7543      	strb	r3, [r0, #21]
 8000e2a:	2301      	movs	r3, #1
 8000e2c:	708b      	strb	r3, [r1, #2]
 8000e2e:	700d      	strb	r5, [r1, #0]
 8000e30:	f894 2494 	ldrb.w	r2, [r4, #1172]	@ 0x494
 8000e34:	429a      	cmp	r2, r3
 8000e36:	d01a      	beq.n	8000e6e <HAL_PCD_EP_SetStall+0x6a>
 8000e38:	6820      	ldr	r0, [r4, #0]
 8000e3a:	f884 3494 	strb.w	r3, [r4, #1172]	@ 0x494
 8000e3e:	f001 fbf5 	bl	800262c <USB_EPSetStall>
 8000e42:	b92d      	cbnz	r5, 8000e50 <HAL_PCD_EP_SetStall+0x4c>
 8000e44:	79a1      	ldrb	r1, [r4, #6]
 8000e46:	6820      	ldr	r0, [r4, #0]
 8000e48:	f204 429c 	addw	r2, r4, #1180	@ 0x49c
 8000e4c:	f001 fcb0 	bl	80027b0 <USB_EP0_OutStart>
 8000e50:	2000      	movs	r0, #0
 8000e52:	f884 0494 	strb.w	r0, [r4, #1172]	@ 0x494
 8000e56:	bd38      	pop	{r3, r4, r5, pc}
 8000e58:	fb00 4301 	mla	r3, r0, r1, r4
 8000e5c:	461a      	mov	r2, r3
 8000e5e:	f503 7115 	add.w	r1, r3, #596	@ 0x254
 8000e62:	2300      	movs	r3, #0
 8000e64:	f882 3255 	strb.w	r3, [r2, #597]	@ 0x255
 8000e68:	e7df      	b.n	8000e2a <HAL_PCD_EP_SetStall+0x26>
 8000e6a:	2001      	movs	r0, #1
 8000e6c:	e7f3      	b.n	8000e56 <HAL_PCD_EP_SetStall+0x52>
 8000e6e:	2002      	movs	r0, #2
 8000e70:	e7f1      	b.n	8000e56 <HAL_PCD_EP_SetStall+0x52>

08000e72 <HAL_PCD_EP_ClrStall>:
 8000e72:	b538      	push	{r3, r4, r5, lr}
 8000e74:	7903      	ldrb	r3, [r0, #4]
 8000e76:	f001 020f 	and.w	r2, r1, #15
 8000e7a:	4293      	cmp	r3, r2
 8000e7c:	4604      	mov	r4, r0
 8000e7e:	d329      	bcc.n	8000ed4 <HAL_PCD_EP_ClrStall+0x62>
 8000e80:	eb02 03c2 	add.w	r3, r2, r2, lsl #3
 8000e84:	f011 0f80 	tst.w	r1, #128	@ 0x80
 8000e88:	ea4f 0383 	mov.w	r3, r3, lsl #2
 8000e8c:	f04f 0024 	mov.w	r0, #36	@ 0x24
 8000e90:	d017      	beq.n	8000ec2 <HAL_PCD_EP_ClrStall+0x50>
 8000e92:	fb00 4002 	mla	r0, r0, r2, r4
 8000e96:	f103 0114 	add.w	r1, r3, #20
 8000e9a:	2301      	movs	r3, #1
 8000e9c:	4421      	add	r1, r4
 8000e9e:	7543      	strb	r3, [r0, #21]
 8000ea0:	2500      	movs	r5, #0
 8000ea2:	708d      	strb	r5, [r1, #2]
 8000ea4:	700a      	strb	r2, [r1, #0]
 8000ea6:	f894 3494 	ldrb.w	r3, [r4, #1172]	@ 0x494
 8000eaa:	2b01      	cmp	r3, #1
 8000eac:	d014      	beq.n	8000ed8 <HAL_PCD_EP_ClrStall+0x66>
 8000eae:	2301      	movs	r3, #1
 8000eb0:	6820      	ldr	r0, [r4, #0]
 8000eb2:	f884 3494 	strb.w	r3, [r4, #1172]	@ 0x494
 8000eb6:	f001 fbe4 	bl	8002682 <USB_EPClearStall>
 8000eba:	f884 5494 	strb.w	r5, [r4, #1172]	@ 0x494
 8000ebe:	4628      	mov	r0, r5
 8000ec0:	bd38      	pop	{r3, r4, r5, pc}
 8000ec2:	fb00 4002 	mla	r0, r0, r2, r4
 8000ec6:	f503 7115 	add.w	r1, r3, #596	@ 0x254
 8000eca:	2300      	movs	r3, #0
 8000ecc:	4421      	add	r1, r4
 8000ece:	f880 3255 	strb.w	r3, [r0, #597]	@ 0x255
 8000ed2:	e7e5      	b.n	8000ea0 <HAL_PCD_EP_ClrStall+0x2e>
 8000ed4:	2001      	movs	r0, #1
 8000ed6:	e7f3      	b.n	8000ec0 <HAL_PCD_EP_ClrStall+0x4e>
 8000ed8:	2002      	movs	r0, #2
 8000eda:	e7f1      	b.n	8000ec0 <HAL_PCD_EP_ClrStall+0x4e>

08000edc <HAL_PCD_EP_Abort>:
 8000edc:	f001 030f 	and.w	r3, r1, #15
 8000ee0:	eb03 03c3 	add.w	r3, r3, r3, lsl #3
 8000ee4:	060a      	lsls	r2, r1, #24
 8000ee6:	ea4f 0383 	mov.w	r3, r3, lsl #2
 8000eea:	bf4c      	ite	mi
 8000eec:	f103 0114 	addmi.w	r1, r3, #20
 8000ef0:	f503 7115 	addpl.w	r1, r3, #596	@ 0x254
 8000ef4:	4401      	add	r1, r0
 8000ef6:	6800      	ldr	r0, [r0, #0]
 8000ef8:	f001 ba20 	b.w	800233c <USB_EPStopXfer>

08000efc <HAL_PCD_IRQHandler>:
 8000efc:	e92d 4ff0 	stmdb	sp!, {r4, r5, r6, r7, r8, r9, sl, fp, lr}
 8000f00:	6806      	ldr	r6, [r0, #0]
 8000f02:	b089      	sub	sp, #36	@ 0x24
 8000f04:	4604      	mov	r4, r0
 8000f06:	4630      	mov	r0, r6
 8000f08:	f001 fc3e 	bl	8002788 <USB_GetMode>
 8000f0c:	9003      	str	r0, [sp, #12]
 8000f0e:	2800      	cmp	r0, #0
 8000f10:	f040 8157 	bne.w	80011c2 <HAL_PCD_IRQHandler+0x2c6>
 8000f14:	6820      	ldr	r0, [r4, #0]
 8000f16:	f001 fc09 	bl	800272c <USB_ReadInterrupts>
 8000f1a:	2800      	cmp	r0, #0
 8000f1c:	f000 8151 	beq.w	80011c2 <HAL_PCD_IRQHandler+0x2c6>
 8000f20:	f8d6 3808 	ldr.w	r3, [r6, #2056]	@ 0x808
 8000f24:	6820      	ldr	r0, [r4, #0]
 8000f26:	f3c3 230d 	ubfx	r3, r3, #8, #14
 8000f2a:	f8c4 34d4 	str.w	r3, [r4, #1236]	@ 0x4d4
 8000f2e:	f001 fbfd 	bl	800272c <USB_ReadInterrupts>
 8000f32:	0787      	lsls	r7, r0, #30
 8000f34:	bf48      	it	mi
 8000f36:	6822      	ldrmi	r2, [r4, #0]
 8000f38:	6820      	ldr	r0, [r4, #0]
 8000f3a:	bf42      	ittt	mi
 8000f3c:	6953      	ldrmi	r3, [r2, #20]
 8000f3e:	f003 0302 	andmi.w	r3, r3, #2
 8000f42:	6153      	strmi	r3, [r2, #20]
 8000f44:	f001 fbf2 	bl	800272c <USB_ReadInterrupts>
 8000f48:	06c0      	lsls	r0, r0, #27
 8000f4a:	f506 6500 	add.w	r5, r6, #2048	@ 0x800
 8000f4e:	d52c      	bpl.n	8000faa <HAL_PCD_IRQHandler+0xae>
 8000f50:	6822      	ldr	r2, [r4, #0]
 8000f52:	6993      	ldr	r3, [r2, #24]
 8000f54:	f023 0310 	bic.w	r3, r3, #16
 8000f58:	6193      	str	r3, [r2, #24]
 8000f5a:	f8d6 8020 	ldr.w	r8, [r6, #32]
 8000f5e:	f3c8 4343 	ubfx	r3, r8, #17, #4
 8000f62:	2b02      	cmp	r3, #2
 8000f64:	f008 070f 	and.w	r7, r8, #15
 8000f68:	f040 812e 	bne.w	80011c8 <HAL_PCD_IRQHandler+0x2cc>
 8000f6c:	f647 73f0 	movw	r3, #32752	@ 0x7ff0
 8000f70:	ea18 0f03 	tst.w	r8, r3
 8000f74:	d014      	beq.n	8000fa0 <HAL_PCD_IRQHandler+0xa4>
 8000f76:	2324      	movs	r3, #36	@ 0x24
 8000f78:	fb03 4707 	mla	r7, r3, r7, r4
 8000f7c:	f3c8 190a 	ubfx	r9, r8, #4, #11
 8000f80:	f8d7 1260 	ldr.w	r1, [r7, #608]	@ 0x260
 8000f84:	464a      	mov	r2, r9
 8000f86:	4630      	mov	r0, r6
 8000f88:	f001 fb30 	bl	80025ec <USB_ReadPacket>
 8000f8c:	f8d7 3260 	ldr.w	r3, [r7, #608]	@ 0x260
 8000f90:	444b      	add	r3, r9
 8000f92:	f8c7 3260 	str.w	r3, [r7, #608]	@ 0x260
 8000f96:	f8d7 3268 	ldr.w	r3, [r7, #616]	@ 0x268
 8000f9a:	444b      	add	r3, r9
 8000f9c:	f8c7 3268 	str.w	r3, [r7, #616]	@ 0x268
 8000fa0:	6822      	ldr	r2, [r4, #0]
 8000fa2:	6993      	ldr	r3, [r2, #24]
 8000fa4:	f043 0310 	orr.w	r3, r3, #16
 8000fa8:	6193      	str	r3, [r2, #24]
 8000faa:	6820      	ldr	r0, [r4, #0]
 8000fac:	f001 fbbe 	bl	800272c <USB_ReadInterrupts>
 8000fb0:	0301      	lsls	r1, r0, #12
 8000fb2:	f100 811b 	bmi.w	80011ec <HAL_PCD_IRQHandler+0x2f0>
 8000fb6:	6820      	ldr	r0, [r4, #0]
 8000fb8:	f001 fbb8 	bl	800272c <USB_ReadInterrupts>
 8000fbc:	0342      	lsls	r2, r0, #13
 8000fbe:	d50d      	bpl.n	8000fdc <HAL_PCD_IRQHandler+0xe0>
 8000fc0:	6820      	ldr	r0, [r4, #0]
 8000fc2:	f001 fbbf 	bl	8002744 <USB_ReadDevAllInEpInterrupt>
 8000fc6:	4627      	mov	r7, r4
 8000fc8:	9004      	str	r0, [sp, #16]
 8000fca:	f506 6b10 	add.w	fp, r6, #2304	@ 0x900
 8000fce:	f04f 0a00 	mov.w	sl, #0
 8000fd2:	9b04      	ldr	r3, [sp, #16]
 8000fd4:	6820      	ldr	r0, [r4, #0]
 8000fd6:	2b00      	cmp	r3, #0
 8000fd8:	f040 81d5 	bne.w	8001386 <HAL_PCD_IRQHandler+0x48a>
 8000fdc:	6820      	ldr	r0, [r4, #0]
 8000fde:	f001 fba5 	bl	800272c <USB_ReadInterrupts>
 8000fe2:	2800      	cmp	r0, #0
 8000fe4:	da13      	bge.n	800100e <HAL_PCD_IRQHandler+0x112>
 8000fe6:	686b      	ldr	r3, [r5, #4]
 8000fe8:	f023 0301 	bic.w	r3, r3, #1
 8000fec:	606b      	str	r3, [r5, #4]
 8000fee:	f894 34cc 	ldrb.w	r3, [r4, #1228]	@ 0x4cc
 8000ff2:	2b01      	cmp	r3, #1
 8000ff4:	f040 826d 	bne.w	80014d2 <HAL_PCD_IRQHandler+0x5d6>
 8000ff8:	2100      	movs	r1, #0
 8000ffa:	f884 14cc 	strb.w	r1, [r4, #1228]	@ 0x4cc
 8000ffe:	4620      	mov	r0, r4
 8001000:	f000 fae9 	bl	80015d6 <HAL_PCDEx_LPM_Callback>
 8001004:	6822      	ldr	r2, [r4, #0]
 8001006:	6953      	ldr	r3, [r2, #20]
 8001008:	f003 4300 	and.w	r3, r3, #2147483648	@ 0x80000000
 800100c:	6153      	str	r3, [r2, #20]
 800100e:	6820      	ldr	r0, [r4, #0]
 8001010:	f001 fb8c 	bl	800272c <USB_ReadInterrupts>
 8001014:	0501      	lsls	r1, r0, #20
 8001016:	d50a      	bpl.n	800102e <HAL_PCD_IRQHandler+0x132>
 8001018:	68ab      	ldr	r3, [r5, #8]
 800101a:	07da      	lsls	r2, r3, #31
 800101c:	d502      	bpl.n	8001024 <HAL_PCD_IRQHandler+0x128>
 800101e:	4620      	mov	r0, r4
 8001020:	f003 f954 	bl	80042cc <HAL_PCD_SuspendCallback>
 8001024:	6822      	ldr	r2, [r4, #0]
 8001026:	6953      	ldr	r3, [r2, #20]
 8001028:	f403 6300 	and.w	r3, r3, #2048	@ 0x800
 800102c:	6153      	str	r3, [r2, #20]
 800102e:	6820      	ldr	r0, [r4, #0]
 8001030:	f001 fb7c 	bl	800272c <USB_ReadInterrupts>
 8001034:	04c3      	lsls	r3, r0, #19
 8001036:	d533      	bpl.n	80010a0 <HAL_PCD_IRQHandler+0x1a4>
 8001038:	686b      	ldr	r3, [r5, #4]
 800103a:	6820      	ldr	r0, [r4, #0]
 800103c:	f023 0301 	bic.w	r3, r3, #1
 8001040:	606b      	str	r3, [r5, #4]
 8001042:	2110      	movs	r1, #16
 8001044:	f000 ffd4 	bl	8001ff0 <USB_FlushTxFifo>
 8001048:	7920      	ldrb	r0, [r4, #4]
 800104a:	f506 6310 	add.w	r3, r6, #2304	@ 0x900
 800104e:	f64f 317f 	movw	r1, #64383	@ 0xfb7f
 8001052:	9a03      	ldr	r2, [sp, #12]
 8001054:	4290      	cmp	r0, r2
 8001056:	f200 8240 	bhi.w	80014da <HAL_PCD_IRQHandler+0x5de>
 800105a:	69eb      	ldr	r3, [r5, #28]
 800105c:	f043 1301 	orr.w	r3, r3, #65537	@ 0x10001
 8001060:	61eb      	str	r3, [r5, #28]
 8001062:	7be3      	ldrb	r3, [r4, #15]
 8001064:	2b00      	cmp	r3, #0
 8001066:	f000 8255 	beq.w	8001514 <HAL_PCD_IRQHandler+0x618>
 800106a:	f8d5 3084 	ldr.w	r3, [r5, #132]	@ 0x84
 800106e:	f043 030b 	orr.w	r3, r3, #11
 8001072:	f8c5 3084 	str.w	r3, [r5, #132]	@ 0x84
 8001076:	6c6b      	ldr	r3, [r5, #68]	@ 0x44
 8001078:	f043 030b 	orr.w	r3, r3, #11
 800107c:	646b      	str	r3, [r5, #68]	@ 0x44
 800107e:	f8d6 3800 	ldr.w	r3, [r6, #2048]	@ 0x800
 8001082:	6820      	ldr	r0, [r4, #0]
 8001084:	f423 63fe 	bic.w	r3, r3, #2032	@ 0x7f0
 8001088:	f8c6 3800 	str.w	r3, [r6, #2048]	@ 0x800
 800108c:	f204 429c 	addw	r2, r4, #1180	@ 0x49c
 8001090:	79a1      	ldrb	r1, [r4, #6]
 8001092:	f001 fb8d 	bl	80027b0 <USB_EP0_OutStart>
 8001096:	6822      	ldr	r2, [r4, #0]
 8001098:	6953      	ldr	r3, [r2, #20]
 800109a:	f403 5380 	and.w	r3, r3, #4096	@ 0x1000
 800109e:	6153      	str	r3, [r2, #20]
 80010a0:	6820      	ldr	r0, [r4, #0]
 80010a2:	f001 fb43 	bl	800272c <USB_ReadInterrupts>
 80010a6:	0487      	lsls	r7, r0, #18
 80010a8:	d516      	bpl.n	80010d8 <HAL_PCD_IRQHandler+0x1dc>
 80010aa:	6820      	ldr	r0, [r4, #0]
 80010ac:	f001 fb70 	bl	8002790 <USB_ActivateSetup>
 80010b0:	6820      	ldr	r0, [r4, #0]
 80010b2:	f001 f8a3 	bl	80021fc <USB_GetDevSpeed>
 80010b6:	71e0      	strb	r0, [r4, #7]
 80010b8:	6827      	ldr	r7, [r4, #0]
 80010ba:	f000 fd03 	bl	8001ac4 <HAL_RCC_GetHCLKFreq>
 80010be:	79e2      	ldrb	r2, [r4, #7]
 80010c0:	4601      	mov	r1, r0
 80010c2:	4638      	mov	r0, r7
 80010c4:	f000 fee8 	bl	8001e98 <USB_SetTurnaroundTime>
 80010c8:	4620      	mov	r0, r4
 80010ca:	f003 f8ec 	bl	80042a6 <HAL_PCD_ResetCallback>
 80010ce:	6822      	ldr	r2, [r4, #0]
 80010d0:	6953      	ldr	r3, [r2, #20]
 80010d2:	f403 5300 	and.w	r3, r3, #8192	@ 0x2000
 80010d6:	6153      	str	r3, [r2, #20]
 80010d8:	6820      	ldr	r0, [r4, #0]
 80010da:	f001 fb27 	bl	800272c <USB_ReadInterrupts>
 80010de:	0700      	lsls	r0, r0, #28
 80010e0:	d507      	bpl.n	80010f2 <HAL_PCD_IRQHandler+0x1f6>
 80010e2:	4620      	mov	r0, r4
 80010e4:	f003 f8db 	bl	800429e <HAL_PCD_SOFCallback>
 80010e8:	6822      	ldr	r2, [r4, #0]
 80010ea:	6953      	ldr	r3, [r2, #20]
 80010ec:	f003 0308 	and.w	r3, r3, #8
 80010f0:	6153      	str	r3, [r2, #20]
 80010f2:	6820      	ldr	r0, [r4, #0]
 80010f4:	f001 fb1a 	bl	800272c <USB_ReadInterrupts>
 80010f8:	0601      	lsls	r1, r0, #24
 80010fa:	f100 8216 	bmi.w	800152a <HAL_PCD_IRQHandler+0x62e>
 80010fe:	6820      	ldr	r0, [r4, #0]
 8001100:	f001 fb14 	bl	800272c <USB_ReadInterrupts>
 8001104:	02c2      	lsls	r2, r0, #11
 8001106:	d50c      	bpl.n	8001122 <HAL_PCD_IRQHandler+0x226>
 8001108:	46a0      	mov	r8, r4
 800110a:	f506 6912 	add.w	r9, r6, #2336	@ 0x920
 800110e:	2701      	movs	r7, #1
 8001110:	7923      	ldrb	r3, [r4, #4]
 8001112:	42bb      	cmp	r3, r7
 8001114:	f200 8222 	bhi.w	800155c <HAL_PCD_IRQHandler+0x660>
 8001118:	6822      	ldr	r2, [r4, #0]
 800111a:	6953      	ldr	r3, [r2, #20]
 800111c:	f403 1380 	and.w	r3, r3, #1048576	@ 0x100000
 8001120:	6153      	str	r3, [r2, #20]
 8001122:	6820      	ldr	r0, [r4, #0]
 8001124:	f001 fb02 	bl	800272c <USB_ReadInterrupts>
 8001128:	0283      	lsls	r3, r0, #10
 800112a:	d52d      	bpl.n	8001188 <HAL_PCD_IRQHandler+0x28c>
 800112c:	f894 e004 	ldrb.w	lr, [r4, #4]
 8001130:	4623      	mov	r3, r4
 8001132:	f506 6032 	add.w	r0, r6, #2848	@ 0xb20
 8001136:	2101      	movs	r1, #1
 8001138:	458e      	cmp	lr, r1
 800113a:	d920      	bls.n	800117e <HAL_PCD_IRQHandler+0x282>
 800113c:	f893 c27c 	ldrb.w	ip, [r3, #636]	@ 0x27c
 8001140:	6802      	ldr	r2, [r0, #0]
 8001142:	f1bc 0f01 	cmp.w	ip, #1
 8001146:	f040 821f 	bne.w	8001588 <HAL_PCD_IRQHandler+0x68c>
 800114a:	2a00      	cmp	r2, #0
 800114c:	f280 821c 	bge.w	8001588 <HAL_PCD_IRQHandler+0x68c>
 8001150:	f8d4 74d4 	ldr.w	r7, [r4, #1236]	@ 0x4d4
 8001154:	f402 3280 	and.w	r2, r2, #65536	@ 0x10000
 8001158:	f007 0701 	and.w	r7, r7, #1
 800115c:	42ba      	cmp	r2, r7
 800115e:	f040 8213 	bne.w	8001588 <HAL_PCD_IRQHandler+0x68c>
 8001162:	f883 c27b 	strb.w	ip, [r3, #635]	@ 0x27b
 8001166:	69b2      	ldr	r2, [r6, #24]
 8001168:	f042 0280 	orr.w	r2, r2, #128	@ 0x80
 800116c:	61b2      	str	r2, [r6, #24]
 800116e:	6972      	ldr	r2, [r6, #20]
 8001170:	0617      	lsls	r7, r2, #24
 8001172:	f100 8209 	bmi.w	8001588 <HAL_PCD_IRQHandler+0x68c>
 8001176:	686b      	ldr	r3, [r5, #4]
 8001178:	f443 7300 	orr.w	r3, r3, #512	@ 0x200
 800117c:	606b      	str	r3, [r5, #4]
 800117e:	6822      	ldr	r2, [r4, #0]
 8001180:	6953      	ldr	r3, [r2, #20]
 8001182:	f403 1300 	and.w	r3, r3, #2097152	@ 0x200000
 8001186:	6153      	str	r3, [r2, #20]
 8001188:	6820      	ldr	r0, [r4, #0]
 800118a:	f001 facf 	bl	800272c <USB_ReadInterrupts>
 800118e:	0041      	lsls	r1, r0, #1
 8001190:	d507      	bpl.n	80011a2 <HAL_PCD_IRQHandler+0x2a6>
 8001192:	4620      	mov	r0, r4
 8001194:	f003 f8be 	bl	8004314 <HAL_PCD_ConnectCallback>
 8001198:	6822      	ldr	r2, [r4, #0]
 800119a:	6953      	ldr	r3, [r2, #20]
 800119c:	f003 4380 	and.w	r3, r3, #1073741824	@ 0x40000000
 80011a0:	6153      	str	r3, [r2, #20]
 80011a2:	6820      	ldr	r0, [r4, #0]
 80011a4:	f001 fac2 	bl	800272c <USB_ReadInterrupts>
 80011a8:	0742      	lsls	r2, r0, #29
 80011aa:	d50a      	bpl.n	80011c2 <HAL_PCD_IRQHandler+0x2c6>
 80011ac:	6823      	ldr	r3, [r4, #0]
 80011ae:	685d      	ldr	r5, [r3, #4]
 80011b0:	076b      	lsls	r3, r5, #29
 80011b2:	d502      	bpl.n	80011ba <HAL_PCD_IRQHandler+0x2be>
 80011b4:	4620      	mov	r0, r4
 80011b6:	f003 f8b1 	bl	800431c <HAL_PCD_DisconnectCallback>
 80011ba:	6822      	ldr	r2, [r4, #0]
 80011bc:	6853      	ldr	r3, [r2, #4]
 80011be:	432b      	orrs	r3, r5
 80011c0:	6053      	str	r3, [r2, #4]
 80011c2:	b009      	add	sp, #36	@ 0x24
 80011c4:	e8bd 8ff0 	ldmia.w	sp!, {r4, r5, r6, r7, r8, r9, sl, fp, pc}
 80011c8:	2b06      	cmp	r3, #6
 80011ca:	f47f aee9 	bne.w	8000fa0 <HAL_PCD_IRQHandler+0xa4>
 80011ce:	2208      	movs	r2, #8
 80011d0:	f204 419c 	addw	r1, r4, #1180	@ 0x49c
 80011d4:	4630      	mov	r0, r6
 80011d6:	f001 fa09 	bl	80025ec <USB_ReadPacket>
 80011da:	2324      	movs	r3, #36	@ 0x24
 80011dc:	fb03 4707 	mla	r7, r3, r7, r4
 80011e0:	f3c8 180a 	ubfx	r8, r8, #4, #11
 80011e4:	f8d7 3268 	ldr.w	r3, [r7, #616]	@ 0x268
 80011e8:	4443      	add	r3, r8
 80011ea:	e6d7      	b.n	8000f9c <HAL_PCD_IRQHandler+0xa0>
 80011ec:	6820      	ldr	r0, [r4, #0]
 80011ee:	f001 faa1 	bl	8002734 <USB_ReadDevAllOutEpInterrupt>
 80011f2:	f506 6830 	add.w	r8, r6, #2816	@ 0xb00
 80011f6:	9004      	str	r0, [sp, #16]
 80011f8:	46a2      	mov	sl, r4
 80011fa:	2700      	movs	r7, #0
 80011fc:	9b04      	ldr	r3, [sp, #16]
 80011fe:	6820      	ldr	r0, [r4, #0]
 8001200:	2b00      	cmp	r3, #0
 8001202:	f43f aed8 	beq.w	8000fb6 <HAL_PCD_IRQHandler+0xba>
 8001206:	9b04      	ldr	r3, [sp, #16]
 8001208:	07db      	lsls	r3, r3, #31
 800120a:	d578      	bpl.n	80012fe <HAL_PCD_IRQHandler+0x402>
 800120c:	fa5f fb87 	uxtb.w	fp, r7
 8001210:	4659      	mov	r1, fp
 8001212:	f001 fa9f 	bl	8002754 <USB_ReadDevOutEPInterrupt>
 8001216:	f010 0f01 	tst.w	r0, #1
 800121a:	4681      	mov	r9, r0
 800121c:	d01f      	beq.n	800125e <HAL_PCD_IRQHandler+0x362>
 800121e:	6820      	ldr	r0, [r4, #0]
 8001220:	2301      	movs	r3, #1
 8001222:	f8c8 3008 	str.w	r3, [r8, #8]
 8001226:	f894 c006 	ldrb.w	ip, [r4, #6]
 800122a:	6c01      	ldr	r1, [r0, #64]	@ 0x40
 800122c:	f500 6330 	add.w	r3, r0, #2816	@ 0xb00
 8001230:	eb03 1347 	add.w	r3, r3, r7, lsl #5
 8001234:	f1bc 0f01 	cmp.w	ip, #1
 8001238:	689a      	ldr	r2, [r3, #8]
 800123a:	f040 808e 	bne.w	800135a <HAL_PCD_IRQHandler+0x45e>
 800123e:	f012 0f08 	tst.w	r2, #8
 8001242:	d007      	beq.n	8001254 <HAL_PCD_IRQHandler+0x358>
 8001244:	48b1      	ldr	r0, [pc, #708]	@ (800150c <HAL_PCD_IRQHandler+0x610>)
 8001246:	4281      	cmp	r1, r0
 8001248:	d909      	bls.n	800125e <HAL_PCD_IRQHandler+0x362>
 800124a:	0412      	lsls	r2, r2, #16
 800124c:	d507      	bpl.n	800125e <HAL_PCD_IRQHandler+0x362>
 800124e:	f44f 4200 	mov.w	r2, #32768	@ 0x8000
 8001252:	e003      	b.n	800125c <HAL_PCD_IRQHandler+0x360>
 8001254:	f012 0f20 	tst.w	r2, #32
 8001258:	d05a      	beq.n	8001310 <HAL_PCD_IRQHandler+0x414>
 800125a:	2220      	movs	r2, #32
 800125c:	609a      	str	r2, [r3, #8]
 800125e:	f019 0f08 	tst.w	r9, #8
 8001262:	d021      	beq.n	80012a8 <HAL_PCD_IRQHandler+0x3ac>
 8001264:	2308      	movs	r3, #8
 8001266:	f8c8 3008 	str.w	r3, [r8, #8]
 800126a:	6823      	ldr	r3, [r4, #0]
 800126c:	49a7      	ldr	r1, [pc, #668]	@ (800150c <HAL_PCD_IRQHandler+0x610>)
 800126e:	6c1a      	ldr	r2, [r3, #64]	@ 0x40
 8001270:	f503 6330 	add.w	r3, r3, #2816	@ 0xb00
 8001274:	eb03 1347 	add.w	r3, r3, r7, lsl #5
 8001278:	428a      	cmp	r2, r1
 800127a:	6898      	ldr	r0, [r3, #8]
 800127c:	d904      	bls.n	8001288 <HAL_PCD_IRQHandler+0x38c>
 800127e:	0401      	lsls	r1, r0, #16
 8001280:	bf44      	itt	mi
 8001282:	f44f 4000 	movmi.w	r0, #32768	@ 0x8000
 8001286:	6098      	strmi	r0, [r3, #8]
 8001288:	4620      	mov	r0, r4
 800128a:	9205      	str	r2, [sp, #20]
 800128c:	f002 fff0 	bl	8004270 <HAL_PCD_SetupStageCallback>
 8001290:	9a05      	ldr	r2, [sp, #20]
 8001292:	499e      	ldr	r1, [pc, #632]	@ (800150c <HAL_PCD_IRQHandler+0x610>)
 8001294:	428a      	cmp	r2, r1
 8001296:	d907      	bls.n	80012a8 <HAL_PCD_IRQHandler+0x3ac>
 8001298:	79a1      	ldrb	r1, [r4, #6]
 800129a:	2901      	cmp	r1, #1
 800129c:	d104      	bne.n	80012a8 <HAL_PCD_IRQHandler+0x3ac>
 800129e:	6820      	ldr	r0, [r4, #0]
 80012a0:	f204 429c 	addw	r2, r4, #1180	@ 0x49c
 80012a4:	f001 fa84 	bl	80027b0 <USB_EP0_OutStart>
 80012a8:	f019 0f10 	tst.w	r9, #16
 80012ac:	bf1c      	itt	ne
 80012ae:	2310      	movne	r3, #16
 80012b0:	f8c8 3008 	strne.w	r3, [r8, #8]
 80012b4:	f019 0f02 	tst.w	r9, #2
 80012b8:	d014      	beq.n	80012e4 <HAL_PCD_IRQHandler+0x3e8>
 80012ba:	6973      	ldr	r3, [r6, #20]
 80012bc:	061a      	lsls	r2, r3, #24
 80012be:	bf42      	ittt	mi
 80012c0:	686b      	ldrmi	r3, [r5, #4]
 80012c2:	f443 6380 	orrmi.w	r3, r3, #1024	@ 0x400
 80012c6:	606b      	strmi	r3, [r5, #4]
 80012c8:	f89a 3257 	ldrb.w	r3, [sl, #599]	@ 0x257
 80012cc:	2b01      	cmp	r3, #1
 80012ce:	d106      	bne.n	80012de <HAL_PCD_IRQHandler+0x3e2>
 80012d0:	2300      	movs	r3, #0
 80012d2:	f88a 3257 	strb.w	r3, [sl, #599]	@ 0x257
 80012d6:	4659      	mov	r1, fp
 80012d8:	4620      	mov	r0, r4
 80012da:	f003 f813 	bl	8004304 <HAL_PCD_ISOOUTIncompleteCallback>
 80012de:	2302      	movs	r3, #2
 80012e0:	f8c8 3008 	str.w	r3, [r8, #8]
 80012e4:	f019 0f20 	tst.w	r9, #32
 80012e8:	bf1c      	itt	ne
 80012ea:	2320      	movne	r3, #32
 80012ec:	f8c8 3008 	strne.w	r3, [r8, #8]
 80012f0:	f419 5f00 	tst.w	r9, #8192	@ 0x2000
 80012f4:	bf1c      	itt	ne
 80012f6:	f44f 5300 	movne.w	r3, #8192	@ 0x2000
 80012fa:	f8c8 3008 	strne.w	r3, [r8, #8]
 80012fe:	9b04      	ldr	r3, [sp, #16]
 8001300:	085b      	lsrs	r3, r3, #1
 8001302:	3701      	adds	r7, #1
 8001304:	9304      	str	r3, [sp, #16]
 8001306:	f108 0820 	add.w	r8, r8, #32
 800130a:	f10a 0a24 	add.w	sl, sl, #36	@ 0x24
 800130e:	e775      	b.n	80011fc <HAL_PCD_IRQHandler+0x300>
 8001310:	f012 0f28 	tst.w	r2, #40	@ 0x28
 8001314:	d1a3      	bne.n	800125e <HAL_PCD_IRQHandler+0x362>
 8001316:	f8df c1f4 	ldr.w	ip, [pc, #500]	@ 800150c <HAL_PCD_IRQHandler+0x610>
 800131a:	4561      	cmp	r1, ip
 800131c:	d901      	bls.n	8001322 <HAL_PCD_IRQHandler+0x426>
 800131e:	0412      	lsls	r2, r2, #16
 8001320:	d495      	bmi.n	800124e <HAL_PCD_IRQHandler+0x352>
 8001322:	691a      	ldr	r2, [r3, #16]
 8001324:	f8da 3274 	ldr.w	r3, [sl, #628]	@ 0x274
 8001328:	f3c2 0212 	ubfx	r2, r2, #0, #19
 800132c:	1a9b      	subs	r3, r3, r2
 800132e:	f8ca 3268 	str.w	r3, [sl, #616]	@ 0x268
 8001332:	b96f      	cbnz	r7, 8001350 <HAL_PCD_IRQHandler+0x454>
 8001334:	f8d4 2264 	ldr.w	r2, [r4, #612]	@ 0x264
 8001338:	b92a      	cbnz	r2, 8001346 <HAL_PCD_IRQHandler+0x44a>
 800133a:	f204 429c 	addw	r2, r4, #1180	@ 0x49c
 800133e:	2101      	movs	r1, #1
 8001340:	f001 fa36 	bl	80027b0 <USB_EP0_OutStart>
 8001344:	e004      	b.n	8001350 <HAL_PCD_IRQHandler+0x454>
 8001346:	f8d4 2260 	ldr.w	r2, [r4, #608]	@ 0x260
 800134a:	441a      	add	r2, r3
 800134c:	f8c4 2260 	str.w	r2, [r4, #608]	@ 0x260
 8001350:	4659      	mov	r1, fp
 8001352:	4620      	mov	r0, r4
 8001354:	f002 ff92 	bl	800427c <HAL_PCD_DataOutStageCallback>
 8001358:	e781      	b.n	800125e <HAL_PCD_IRQHandler+0x362>
 800135a:	f8df c1b4 	ldr.w	ip, [pc, #436]	@ 8001510 <HAL_PCD_IRQHandler+0x614>
 800135e:	4561      	cmp	r1, ip
 8001360:	d107      	bne.n	8001372 <HAL_PCD_IRQHandler+0x476>
 8001362:	0411      	lsls	r1, r2, #16
 8001364:	f53f af73 	bmi.w	800124e <HAL_PCD_IRQHandler+0x352>
 8001368:	0690      	lsls	r0, r2, #26
 800136a:	d5f1      	bpl.n	8001350 <HAL_PCD_IRQHandler+0x454>
 800136c:	2220      	movs	r2, #32
 800136e:	609a      	str	r2, [r3, #8]
 8001370:	e7ee      	b.n	8001350 <HAL_PCD_IRQHandler+0x454>
 8001372:	2f00      	cmp	r7, #0
 8001374:	d1ec      	bne.n	8001350 <HAL_PCD_IRQHandler+0x454>
 8001376:	f8d4 3264 	ldr.w	r3, [r4, #612]	@ 0x264
 800137a:	2b00      	cmp	r3, #0
 800137c:	d1e8      	bne.n	8001350 <HAL_PCD_IRQHandler+0x454>
 800137e:	f204 429c 	addw	r2, r4, #1180	@ 0x49c
 8001382:	4639      	mov	r1, r7
 8001384:	e7dc      	b.n	8001340 <HAL_PCD_IRQHandler+0x444>
 8001386:	9b04      	ldr	r3, [sp, #16]
 8001388:	07db      	lsls	r3, r3, #31
 800138a:	f140 8099 	bpl.w	80014c0 <HAL_PCD_IRQHandler+0x5c4>
 800138e:	fa5f f38a 	uxtb.w	r3, sl
 8001392:	4619      	mov	r1, r3
 8001394:	9305      	str	r3, [sp, #20]
 8001396:	f001 f9e6 	bl	8002766 <USB_ReadDevInEPInterrupt>
 800139a:	f010 0f01 	tst.w	r0, #1
 800139e:	4680      	mov	r8, r0
 80013a0:	d01f      	beq.n	80013e2 <HAL_PCD_IRQHandler+0x4e6>
 80013a2:	6b6b      	ldr	r3, [r5, #52]	@ 0x34
 80013a4:	2101      	movs	r1, #1
 80013a6:	f00a 020f 	and.w	r2, sl, #15
 80013aa:	fa01 f202 	lsl.w	r2, r1, r2
 80013ae:	ea23 0302 	bic.w	r3, r3, r2
 80013b2:	636b      	str	r3, [r5, #52]	@ 0x34
 80013b4:	f8cb 1008 	str.w	r1, [fp, #8]
 80013b8:	79a1      	ldrb	r1, [r4, #6]
 80013ba:	2901      	cmp	r1, #1
 80013bc:	d10d      	bne.n	80013da <HAL_PCD_IRQHandler+0x4de>
 80013be:	e9d7 2307 	ldrd	r2, r3, [r7, #28]
 80013c2:	4413      	add	r3, r2
 80013c4:	623b      	str	r3, [r7, #32]
 80013c6:	f1ba 0f00 	cmp.w	sl, #0
 80013ca:	d106      	bne.n	80013da <HAL_PCD_IRQHandler+0x4de>
 80013cc:	6a63      	ldr	r3, [r4, #36]	@ 0x24
 80013ce:	b923      	cbnz	r3, 80013da <HAL_PCD_IRQHandler+0x4de>
 80013d0:	6820      	ldr	r0, [r4, #0]
 80013d2:	f204 429c 	addw	r2, r4, #1180	@ 0x49c
 80013d6:	f001 f9eb 	bl	80027b0 <USB_EP0_OutStart>
 80013da:	9905      	ldr	r1, [sp, #20]
 80013dc:	4620      	mov	r0, r4
 80013de:	f002 ff56 	bl	800428e <HAL_PCD_DataInStageCallback>
 80013e2:	f018 0f08 	tst.w	r8, #8
 80013e6:	bf1c      	itt	ne
 80013e8:	2308      	movne	r3, #8
 80013ea:	f8cb 3008 	strne.w	r3, [fp, #8]
 80013ee:	f018 0f10 	tst.w	r8, #16
 80013f2:	bf1c      	itt	ne
 80013f4:	2310      	movne	r3, #16
 80013f6:	f8cb 3008 	strne.w	r3, [fp, #8]
 80013fa:	f018 0f40 	tst.w	r8, #64	@ 0x40
 80013fe:	bf1c      	itt	ne
 8001400:	2340      	movne	r3, #64	@ 0x40
 8001402:	f8cb 3008 	strne.w	r3, [fp, #8]
 8001406:	f018 0f02 	tst.w	r8, #2
 800140a:	d00f      	beq.n	800142c <HAL_PCD_IRQHandler+0x530>
 800140c:	4651      	mov	r1, sl
 800140e:	4630      	mov	r0, r6
 8001410:	f000 fdee 	bl	8001ff0 <USB_FlushTxFifo>
 8001414:	7dfb      	ldrb	r3, [r7, #23]
 8001416:	2b01      	cmp	r3, #1
 8001418:	d105      	bne.n	8001426 <HAL_PCD_IRQHandler+0x52a>
 800141a:	2300      	movs	r3, #0
 800141c:	9905      	ldr	r1, [sp, #20]
 800141e:	75fb      	strb	r3, [r7, #23]
 8001420:	4620      	mov	r0, r4
 8001422:	f002 ff73 	bl	800430c <HAL_PCD_ISOINIncompleteCallback>
 8001426:	2302      	movs	r3, #2
 8001428:	f8cb 3008 	str.w	r3, [fp, #8]
 800142c:	6823      	ldr	r3, [r4, #0]
 800142e:	9306      	str	r3, [sp, #24]
 8001430:	f018 0f80 	tst.w	r8, #128	@ 0x80
 8001434:	d044      	beq.n	80014c0 <HAL_PCD_IRQHandler+0x5c4>
 8001436:	e9d7 3209 	ldrd	r3, r2, [r7, #36]	@ 0x24
 800143a:	429a      	cmp	r2, r3
 800143c:	d840      	bhi.n	80014c0 <HAL_PCD_IRQHandler+0x5c4>
 800143e:	eba3 0802 	sub.w	r8, r3, r2
 8001442:	69fb      	ldr	r3, [r7, #28]
 8001444:	4598      	cmp	r8, r3
 8001446:	bf28      	it	cs
 8001448:	4698      	movcs	r8, r3
 800144a:	9b06      	ldr	r3, [sp, #24]
 800144c:	f503 6310 	add.w	r3, r3, #2304	@ 0x900
 8001450:	f108 0803 	add.w	r8, r8, #3
 8001454:	eb03 134a 	add.w	r3, r3, sl, lsl #5
 8001458:	ea4f 0898 	mov.w	r8, r8, lsr #2
 800145c:	9307      	str	r3, [sp, #28]
 800145e:	9b07      	ldr	r3, [sp, #28]
 8001460:	6999      	ldr	r1, [r3, #24]
 8001462:	b289      	uxth	r1, r1
 8001464:	4541      	cmp	r1, r8
 8001466:	e9d7 3209 	ldrd	r3, r2, [r7, #36]	@ 0x24
 800146a:	d327      	bcc.n	80014bc <HAL_PCD_IRQHandler+0x5c0>
 800146c:	4293      	cmp	r3, r2
 800146e:	d80b      	bhi.n	8001488 <HAL_PCD_IRQHandler+0x58c>
 8001470:	9b06      	ldr	r3, [sp, #24]
 8001472:	f00a 000f 	and.w	r0, sl, #15
 8001476:	f8d3 2834 	ldr.w	r2, [r3, #2100]	@ 0x834
 800147a:	2101      	movs	r1, #1
 800147c:	4081      	lsls	r1, r0
 800147e:	ea22 0201 	bic.w	r2, r2, r1
 8001482:	f8c3 2834 	str.w	r2, [r3, #2100]	@ 0x834
 8001486:	e01b      	b.n	80014c0 <HAL_PCD_IRQHandler+0x5c4>
 8001488:	eba3 0902 	sub.w	r9, r3, r2
 800148c:	69fb      	ldr	r3, [r7, #28]
 800148e:	9a05      	ldr	r2, [sp, #20]
 8001490:	9806      	ldr	r0, [sp, #24]
 8001492:	4599      	cmp	r9, r3
 8001494:	bf28      	it	cs
 8001496:	4699      	movcs	r9, r3
 8001498:	79a3      	ldrb	r3, [r4, #6]
 800149a:	9300      	str	r3, [sp, #0]
 800149c:	6a39      	ldr	r1, [r7, #32]
 800149e:	fa1f f389 	uxth.w	r3, r9
 80014a2:	f000 ff8d 	bl	80023c0 <USB_WritePacket>
 80014a6:	6a3b      	ldr	r3, [r7, #32]
 80014a8:	444b      	add	r3, r9
 80014aa:	623b      	str	r3, [r7, #32]
 80014ac:	6abb      	ldr	r3, [r7, #40]	@ 0x28
 80014ae:	f109 0803 	add.w	r8, r9, #3
 80014b2:	444b      	add	r3, r9
 80014b4:	ea4f 0898 	mov.w	r8, r8, lsr #2
 80014b8:	62bb      	str	r3, [r7, #40]	@ 0x28
 80014ba:	e7d0      	b.n	800145e <HAL_PCD_IRQHandler+0x562>
 80014bc:	4293      	cmp	r3, r2
 80014be:	d9d7      	bls.n	8001470 <HAL_PCD_IRQHandler+0x574>
 80014c0:	9b04      	ldr	r3, [sp, #16]
 80014c2:	085b      	lsrs	r3, r3, #1
 80014c4:	f10a 0a01 	add.w	sl, sl, #1
 80014c8:	9304      	str	r3, [sp, #16]
 80014ca:	3724      	adds	r7, #36	@ 0x24
 80014cc:	f10b 0b20 	add.w	fp, fp, #32
 80014d0:	e57f      	b.n	8000fd2 <HAL_PCD_IRQHandler+0xd6>
 80014d2:	4620      	mov	r0, r4
 80014d4:	f002 ff12 	bl	80042fc <HAL_PCD_ResumeCallback>
 80014d8:	e594      	b.n	8001004 <HAL_PCD_IRQHandler+0x108>
 80014da:	6099      	str	r1, [r3, #8]
 80014dc:	681a      	ldr	r2, [r3, #0]
 80014de:	f422 1200 	bic.w	r2, r2, #2097152	@ 0x200000
 80014e2:	601a      	str	r2, [r3, #0]
 80014e4:	f8c3 1208 	str.w	r1, [r3, #520]	@ 0x208
 80014e8:	f8d3 2200 	ldr.w	r2, [r3, #512]	@ 0x200
 80014ec:	f422 1200 	bic.w	r2, r2, #2097152	@ 0x200000
 80014f0:	f8c3 2200 	str.w	r2, [r3, #512]	@ 0x200
 80014f4:	f8d3 2200 	ldr.w	r2, [r3, #512]	@ 0x200
 80014f8:	f042 6200 	orr.w	r2, r2, #134217728	@ 0x8000000
 80014fc:	f8c3 2200 	str.w	r2, [r3, #512]	@ 0x200
 8001500:	9a03      	ldr	r2, [sp, #12]
 8001502:	3201      	adds	r2, #1
 8001504:	9203      	str	r2, [sp, #12]
 8001506:	3320      	adds	r3, #32
 8001508:	e5a3      	b.n	8001052 <HAL_PCD_IRQHandler+0x156>
 800150a:	bf00      	nop
 800150c:	4f54300a 	.word	0x4f54300a
 8001510:	4f54310a 	.word	0x4f54310a
 8001514:	696b      	ldr	r3, [r5, #20]
 8001516:	f443 5300 	orr.w	r3, r3, #8192	@ 0x2000
 800151a:	f043 032b 	orr.w	r3, r3, #43	@ 0x2b
 800151e:	616b      	str	r3, [r5, #20]
 8001520:	692b      	ldr	r3, [r5, #16]
 8001522:	f043 030b 	orr.w	r3, r3, #11
 8001526:	612b      	str	r3, [r5, #16]
 8001528:	e5a9      	b.n	800107e <HAL_PCD_IRQHandler+0x182>
 800152a:	69b3      	ldr	r3, [r6, #24]
 800152c:	f023 0380 	bic.w	r3, r3, #128	@ 0x80
 8001530:	61b3      	str	r3, [r6, #24]
 8001532:	2701      	movs	r7, #1
 8001534:	f204 2857 	addw	r8, r4, #599	@ 0x257
 8001538:	f04f 0924 	mov.w	r9, #36	@ 0x24
 800153c:	7923      	ldrb	r3, [r4, #4]
 800153e:	42bb      	cmp	r3, r7
 8001540:	f67f addd 	bls.w	80010fe <HAL_PCD_IRQHandler+0x202>
 8001544:	fb09 f307 	mul.w	r3, r9, r7
 8001548:	f818 3003 	ldrb.w	r3, [r8, r3]
 800154c:	2b01      	cmp	r3, #1
 800154e:	d103      	bne.n	8001558 <HAL_PCD_IRQHandler+0x65c>
 8001550:	b2f9      	uxtb	r1, r7
 8001552:	4620      	mov	r0, r4
 8001554:	f7ff fcc2 	bl	8000edc <HAL_PCD_EP_Abort>
 8001558:	3701      	adds	r7, #1
 800155a:	e7ef      	b.n	800153c <HAL_PCD_IRQHandler+0x640>
 800155c:	f898 303c 	ldrb.w	r3, [r8, #60]	@ 0x3c
 8001560:	f8d9 2000 	ldr.w	r2, [r9]
 8001564:	2b01      	cmp	r3, #1
 8001566:	d109      	bne.n	800157c <HAL_PCD_IRQHandler+0x680>
 8001568:	2a00      	cmp	r2, #0
 800156a:	da07      	bge.n	800157c <HAL_PCD_IRQHandler+0x680>
 800156c:	f067 017f 	orn	r1, r7, #127	@ 0x7f
 8001570:	f888 303b 	strb.w	r3, [r8, #59]	@ 0x3b
 8001574:	b2c9      	uxtb	r1, r1
 8001576:	4620      	mov	r0, r4
 8001578:	f7ff fcb0 	bl	8000edc <HAL_PCD_EP_Abort>
 800157c:	3701      	adds	r7, #1
 800157e:	f108 0824 	add.w	r8, r8, #36	@ 0x24
 8001582:	f109 0920 	add.w	r9, r9, #32
 8001586:	e5c3      	b.n	8001110 <HAL_PCD_IRQHandler+0x214>
 8001588:	3101      	adds	r1, #1
 800158a:	3324      	adds	r3, #36	@ 0x24
 800158c:	3020      	adds	r0, #32
 800158e:	e5d3      	b.n	8001138 <HAL_PCD_IRQHandler+0x23c>

08001590 <HAL_PCDEx_SetTxFiFo>:
 8001590:	6803      	ldr	r3, [r0, #0]
 8001592:	b570      	push	{r4, r5, r6, lr}
 8001594:	6a58      	ldr	r0, [r3, #36]	@ 0x24
 8001596:	0412      	lsls	r2, r2, #16
 8001598:	b919      	cbnz	r1, 80015a2 <HAL_PCDEx_SetTxFiFo+0x12>
 800159a:	4302      	orrs	r2, r0
 800159c:	629a      	str	r2, [r3, #40]	@ 0x28
 800159e:	2000      	movs	r0, #0
 80015a0:	bd70      	pop	{r4, r5, r6, pc}
 80015a2:	6a9c      	ldr	r4, [r3, #40]	@ 0x28
 80015a4:	1e4e      	subs	r6, r1, #1
 80015a6:	eb00 4014 	add.w	r0, r0, r4, lsr #16
 80015aa:	2400      	movs	r4, #0
 80015ac:	42b4      	cmp	r4, r6
 80015ae:	d305      	bcc.n	80015bc <HAL_PCDEx_SetTxFiFo+0x2c>
 80015b0:	313f      	adds	r1, #63	@ 0x3f
 80015b2:	eb03 0381 	add.w	r3, r3, r1, lsl #2
 80015b6:	4302      	orrs	r2, r0
 80015b8:	605a      	str	r2, [r3, #4]
 80015ba:	e7f0      	b.n	800159e <HAL_PCDEx_SetTxFiFo+0xe>
 80015bc:	f104 0540 	add.w	r5, r4, #64	@ 0x40
 80015c0:	eb03 0585 	add.w	r5, r3, r5, lsl #2
 80015c4:	3401      	adds	r4, #1
 80015c6:	686d      	ldr	r5, [r5, #4]
 80015c8:	eb00 4015 	add.w	r0, r0, r5, lsr #16
 80015cc:	e7ee      	b.n	80015ac <HAL_PCDEx_SetTxFiFo+0x1c>

080015ce <HAL_PCDEx_SetRxFiFo>:
 80015ce:	6803      	ldr	r3, [r0, #0]
 80015d0:	2000      	movs	r0, #0
 80015d2:	6259      	str	r1, [r3, #36]	@ 0x24
 80015d4:	4770      	bx	lr

080015d6 <HAL_PCDEx_LPM_Callback>:
 80015d6:	4770      	bx	lr

080015d8 <HAL_RCC_OscConfig>:
 80015d8:	e92d 41f3 	stmdb	sp!, {r0, r1, r4, r5, r6, r7, r8, lr}
 80015dc:	4604      	mov	r4, r0
 80015de:	b340      	cbz	r0, 8001632 <HAL_RCC_OscConfig+0x5a>
 80015e0:	6803      	ldr	r3, [r0, #0]
 80015e2:	07de      	lsls	r6, r3, #31
 80015e4:	d410      	bmi.n	8001608 <HAL_RCC_OscConfig+0x30>
 80015e6:	6823      	ldr	r3, [r4, #0]
 80015e8:	079d      	lsls	r5, r3, #30
 80015ea:	d45b      	bmi.n	80016a4 <HAL_RCC_OscConfig+0xcc>
 80015ec:	6823      	ldr	r3, [r4, #0]
 80015ee:	0719      	lsls	r1, r3, #28
 80015f0:	f100 809d 	bmi.w	800172e <HAL_RCC_OscConfig+0x156>
 80015f4:	6823      	ldr	r3, [r4, #0]
 80015f6:	075a      	lsls	r2, r3, #29
 80015f8:	f100 80bd 	bmi.w	8001776 <HAL_RCC_OscConfig+0x19e>
 80015fc:	69a3      	ldr	r3, [r4, #24]
 80015fe:	2b00      	cmp	r3, #0
 8001600:	f040 8124 	bne.w	800184c <HAL_RCC_OscConfig+0x274>
 8001604:	2000      	movs	r0, #0
 8001606:	e02c      	b.n	8001662 <HAL_RCC_OscConfig+0x8a>
 8001608:	4b8d      	ldr	r3, [pc, #564]	@ (8001840 <HAL_RCC_OscConfig+0x268>)
 800160a:	689a      	ldr	r2, [r3, #8]
 800160c:	f002 020c 	and.w	r2, r2, #12
 8001610:	2a04      	cmp	r2, #4
 8001612:	d007      	beq.n	8001624 <HAL_RCC_OscConfig+0x4c>
 8001614:	689a      	ldr	r2, [r3, #8]
 8001616:	f002 020c 	and.w	r2, r2, #12
 800161a:	2a08      	cmp	r2, #8
 800161c:	d10b      	bne.n	8001636 <HAL_RCC_OscConfig+0x5e>
 800161e:	685b      	ldr	r3, [r3, #4]
 8001620:	0259      	lsls	r1, r3, #9
 8001622:	d508      	bpl.n	8001636 <HAL_RCC_OscConfig+0x5e>
 8001624:	4b86      	ldr	r3, [pc, #536]	@ (8001840 <HAL_RCC_OscConfig+0x268>)
 8001626:	681b      	ldr	r3, [r3, #0]
 8001628:	039a      	lsls	r2, r3, #14
 800162a:	d5dc      	bpl.n	80015e6 <HAL_RCC_OscConfig+0xe>
 800162c:	6863      	ldr	r3, [r4, #4]
 800162e:	2b00      	cmp	r3, #0
 8001630:	d1d9      	bne.n	80015e6 <HAL_RCC_OscConfig+0xe>
 8001632:	2001      	movs	r0, #1
 8001634:	e015      	b.n	8001662 <HAL_RCC_OscConfig+0x8a>
 8001636:	6863      	ldr	r3, [r4, #4]
 8001638:	4d81      	ldr	r5, [pc, #516]	@ (8001840 <HAL_RCC_OscConfig+0x268>)
 800163a:	f5b3 3f80 	cmp.w	r3, #65536	@ 0x10000
 800163e:	d113      	bne.n	8001668 <HAL_RCC_OscConfig+0x90>
 8001640:	682b      	ldr	r3, [r5, #0]
 8001642:	f443 3380 	orr.w	r3, r3, #65536	@ 0x10000
 8001646:	602b      	str	r3, [r5, #0]
 8001648:	f7ff f95c 	bl	8000904 <HAL_GetTick>
 800164c:	4e7c      	ldr	r6, [pc, #496]	@ (8001840 <HAL_RCC_OscConfig+0x268>)
 800164e:	4605      	mov	r5, r0
 8001650:	6833      	ldr	r3, [r6, #0]
 8001652:	039b      	lsls	r3, r3, #14
 8001654:	d4c7      	bmi.n	80015e6 <HAL_RCC_OscConfig+0xe>
 8001656:	f7ff f955 	bl	8000904 <HAL_GetTick>
 800165a:	1b40      	subs	r0, r0, r5
 800165c:	2864      	cmp	r0, #100	@ 0x64
 800165e:	d9f7      	bls.n	8001650 <HAL_RCC_OscConfig+0x78>
 8001660:	2003      	movs	r0, #3
 8001662:	b002      	add	sp, #8
 8001664:	e8bd 81f0 	ldmia.w	sp!, {r4, r5, r6, r7, r8, pc}
 8001668:	f5b3 2fa0 	cmp.w	r3, #327680	@ 0x50000
 800166c:	d104      	bne.n	8001678 <HAL_RCC_OscConfig+0xa0>
 800166e:	682b      	ldr	r3, [r5, #0]
 8001670:	f443 2380 	orr.w	r3, r3, #262144	@ 0x40000
 8001674:	602b      	str	r3, [r5, #0]
 8001676:	e7e3      	b.n	8001640 <HAL_RCC_OscConfig+0x68>
 8001678:	682a      	ldr	r2, [r5, #0]
 800167a:	f422 3280 	bic.w	r2, r2, #65536	@ 0x10000
 800167e:	602a      	str	r2, [r5, #0]
 8001680:	682a      	ldr	r2, [r5, #0]
 8001682:	f422 2280 	bic.w	r2, r2, #262144	@ 0x40000
 8001686:	602a      	str	r2, [r5, #0]
 8001688:	2b00      	cmp	r3, #0
 800168a:	d1dd      	bne.n	8001648 <HAL_RCC_OscConfig+0x70>
 800168c:	f7ff f93a 	bl	8000904 <HAL_GetTick>
 8001690:	4606      	mov	r6, r0
 8001692:	682b      	ldr	r3, [r5, #0]
 8001694:	039f      	lsls	r7, r3, #14
 8001696:	d5a6      	bpl.n	80015e6 <HAL_RCC_OscConfig+0xe>
 8001698:	f7ff f934 	bl	8000904 <HAL_GetTick>
 800169c:	1b80      	subs	r0, r0, r6
 800169e:	2864      	cmp	r0, #100	@ 0x64
 80016a0:	d9f7      	bls.n	8001692 <HAL_RCC_OscConfig+0xba>
 80016a2:	e7dd      	b.n	8001660 <HAL_RCC_OscConfig+0x88>
 80016a4:	4b66      	ldr	r3, [pc, #408]	@ (8001840 <HAL_RCC_OscConfig+0x268>)
 80016a6:	689a      	ldr	r2, [r3, #8]
 80016a8:	f012 0f0c 	tst.w	r2, #12
 80016ac:	d007      	beq.n	80016be <HAL_RCC_OscConfig+0xe6>
 80016ae:	689a      	ldr	r2, [r3, #8]
 80016b0:	f002 020c 	and.w	r2, r2, #12
 80016b4:	2a08      	cmp	r2, #8
 80016b6:	d111      	bne.n	80016dc <HAL_RCC_OscConfig+0x104>
 80016b8:	685b      	ldr	r3, [r3, #4]
 80016ba:	025d      	lsls	r5, r3, #9
 80016bc:	d40e      	bmi.n	80016dc <HAL_RCC_OscConfig+0x104>
 80016be:	4a60      	ldr	r2, [pc, #384]	@ (8001840 <HAL_RCC_OscConfig+0x268>)
 80016c0:	6813      	ldr	r3, [r2, #0]
 80016c2:	0799      	lsls	r1, r3, #30
 80016c4:	d502      	bpl.n	80016cc <HAL_RCC_OscConfig+0xf4>
 80016c6:	68e3      	ldr	r3, [r4, #12]
 80016c8:	2b01      	cmp	r3, #1
 80016ca:	d1b2      	bne.n	8001632 <HAL_RCC_OscConfig+0x5a>
 80016cc:	6813      	ldr	r3, [r2, #0]
 80016ce:	6921      	ldr	r1, [r4, #16]
 80016d0:	f023 03f8 	bic.w	r3, r3, #248	@ 0xf8
 80016d4:	ea43 03c1 	orr.w	r3, r3, r1, lsl #3
 80016d8:	6013      	str	r3, [r2, #0]
 80016da:	e787      	b.n	80015ec <HAL_RCC_OscConfig+0x14>
 80016dc:	68e2      	ldr	r2, [r4, #12]
 80016de:	4b59      	ldr	r3, [pc, #356]	@ (8001844 <HAL_RCC_OscConfig+0x26c>)
 80016e0:	b1b2      	cbz	r2, 8001710 <HAL_RCC_OscConfig+0x138>
 80016e2:	2201      	movs	r2, #1
 80016e4:	601a      	str	r2, [r3, #0]
 80016e6:	f7ff f90d 	bl	8000904 <HAL_GetTick>
 80016ea:	4d55      	ldr	r5, [pc, #340]	@ (8001840 <HAL_RCC_OscConfig+0x268>)
 80016ec:	4606      	mov	r6, r0
 80016ee:	682b      	ldr	r3, [r5, #0]
 80016f0:	079b      	lsls	r3, r3, #30
 80016f2:	d507      	bpl.n	8001704 <HAL_RCC_OscConfig+0x12c>
 80016f4:	682b      	ldr	r3, [r5, #0]
 80016f6:	6922      	ldr	r2, [r4, #16]
 80016f8:	f023 03f8 	bic.w	r3, r3, #248	@ 0xf8
 80016fc:	ea43 03c2 	orr.w	r3, r3, r2, lsl #3
 8001700:	602b      	str	r3, [r5, #0]
 8001702:	e773      	b.n	80015ec <HAL_RCC_OscConfig+0x14>
 8001704:	f7ff f8fe 	bl	8000904 <HAL_GetTick>
 8001708:	1b80      	subs	r0, r0, r6
 800170a:	2802      	cmp	r0, #2
 800170c:	d9ef      	bls.n	80016ee <HAL_RCC_OscConfig+0x116>
 800170e:	e7a7      	b.n	8001660 <HAL_RCC_OscConfig+0x88>
 8001710:	601a      	str	r2, [r3, #0]
 8001712:	f7ff f8f7 	bl	8000904 <HAL_GetTick>
 8001716:	4e4a      	ldr	r6, [pc, #296]	@ (8001840 <HAL_RCC_OscConfig+0x268>)
 8001718:	4605      	mov	r5, r0
 800171a:	6833      	ldr	r3, [r6, #0]
 800171c:	079f      	lsls	r7, r3, #30
 800171e:	f57f af65 	bpl.w	80015ec <HAL_RCC_OscConfig+0x14>
 8001722:	f7ff f8ef 	bl	8000904 <HAL_GetTick>
 8001726:	1b40      	subs	r0, r0, r5
 8001728:	2802      	cmp	r0, #2
 800172a:	d9f6      	bls.n	800171a <HAL_RCC_OscConfig+0x142>
 800172c:	e798      	b.n	8001660 <HAL_RCC_OscConfig+0x88>
 800172e:	6962      	ldr	r2, [r4, #20]
 8001730:	4b44      	ldr	r3, [pc, #272]	@ (8001844 <HAL_RCC_OscConfig+0x26c>)
 8001732:	b182      	cbz	r2, 8001756 <HAL_RCC_OscConfig+0x17e>
 8001734:	2201      	movs	r2, #1
 8001736:	f8c3 2e80 	str.w	r2, [r3, #3712]	@ 0xe80
 800173a:	f7ff f8e3 	bl	8000904 <HAL_GetTick>
 800173e:	4e40      	ldr	r6, [pc, #256]	@ (8001840 <HAL_RCC_OscConfig+0x268>)
 8001740:	4605      	mov	r5, r0
 8001742:	6f73      	ldr	r3, [r6, #116]	@ 0x74
 8001744:	079b      	lsls	r3, r3, #30
 8001746:	f53f af55 	bmi.w	80015f4 <HAL_RCC_OscConfig+0x1c>
 800174a:	f7ff f8db 	bl	8000904 <HAL_GetTick>
 800174e:	1b40      	subs	r0, r0, r5
 8001750:	2802      	cmp	r0, #2
 8001752:	d9f6      	bls.n	8001742 <HAL_RCC_OscConfig+0x16a>
 8001754:	e784      	b.n	8001660 <HAL_RCC_OscConfig+0x88>
 8001756:	f8c3 2e80 	str.w	r2, [r3, #3712]	@ 0xe80
 800175a:	f7ff f8d3 	bl	8000904 <HAL_GetTick>
 800175e:	4e38      	ldr	r6, [pc, #224]	@ (8001840 <HAL_RCC_OscConfig+0x268>)
 8001760:	4605      	mov	r5, r0
 8001762:	6f73      	ldr	r3, [r6, #116]	@ 0x74
 8001764:	079f      	lsls	r7, r3, #30
 8001766:	f57f af45 	bpl.w	80015f4 <HAL_RCC_OscConfig+0x1c>
 800176a:	f7ff f8cb 	bl	8000904 <HAL_GetTick>
 800176e:	1b40      	subs	r0, r0, r5
 8001770:	2802      	cmp	r0, #2
 8001772:	d9f6      	bls.n	8001762 <HAL_RCC_OscConfig+0x18a>
 8001774:	e774      	b.n	8001660 <HAL_RCC_OscConfig+0x88>
 8001776:	4b32      	ldr	r3, [pc, #200]	@ (8001840 <HAL_RCC_OscConfig+0x268>)
 8001778:	6c1a      	ldr	r2, [r3, #64]	@ 0x40
 800177a:	f012 5280 	ands.w	r2, r2, #268435456	@ 0x10000000
 800177e:	d128      	bne.n	80017d2 <HAL_RCC_OscConfig+0x1fa>
 8001780:	9201      	str	r2, [sp, #4]
 8001782:	6c1a      	ldr	r2, [r3, #64]	@ 0x40
 8001784:	f042 5280 	orr.w	r2, r2, #268435456	@ 0x10000000
 8001788:	641a      	str	r2, [r3, #64]	@ 0x40
 800178a:	6c1b      	ldr	r3, [r3, #64]	@ 0x40
 800178c:	f003 5380 	and.w	r3, r3, #268435456	@ 0x10000000
 8001790:	9301      	str	r3, [sp, #4]
 8001792:	9b01      	ldr	r3, [sp, #4]
 8001794:	2701      	movs	r7, #1
 8001796:	4d2c      	ldr	r5, [pc, #176]	@ (8001848 <HAL_RCC_OscConfig+0x270>)
 8001798:	682b      	ldr	r3, [r5, #0]
 800179a:	05d8      	lsls	r0, r3, #23
 800179c:	d51b      	bpl.n	80017d6 <HAL_RCC_OscConfig+0x1fe>
 800179e:	68a3      	ldr	r3, [r4, #8]
 80017a0:	4d27      	ldr	r5, [pc, #156]	@ (8001840 <HAL_RCC_OscConfig+0x268>)
 80017a2:	2b01      	cmp	r3, #1
 80017a4:	d127      	bne.n	80017f6 <HAL_RCC_OscConfig+0x21e>
 80017a6:	6f2b      	ldr	r3, [r5, #112]	@ 0x70
 80017a8:	f043 0301 	orr.w	r3, r3, #1
 80017ac:	672b      	str	r3, [r5, #112]	@ 0x70
 80017ae:	f7ff f8a9 	bl	8000904 <HAL_GetTick>
 80017b2:	4e23      	ldr	r6, [pc, #140]	@ (8001840 <HAL_RCC_OscConfig+0x268>)
 80017b4:	4605      	mov	r5, r0
 80017b6:	f241 3888 	movw	r8, #5000	@ 0x1388
 80017ba:	6f33      	ldr	r3, [r6, #112]	@ 0x70
 80017bc:	079a      	lsls	r2, r3, #30
 80017be:	d539      	bpl.n	8001834 <HAL_RCC_OscConfig+0x25c>
 80017c0:	2f00      	cmp	r7, #0
 80017c2:	f43f af1b 	beq.w	80015fc <HAL_RCC_OscConfig+0x24>
 80017c6:	4a1e      	ldr	r2, [pc, #120]	@ (8001840 <HAL_RCC_OscConfig+0x268>)
 80017c8:	6c13      	ldr	r3, [r2, #64]	@ 0x40
 80017ca:	f023 5380 	bic.w	r3, r3, #268435456	@ 0x10000000
 80017ce:	6413      	str	r3, [r2, #64]	@ 0x40
 80017d0:	e714      	b.n	80015fc <HAL_RCC_OscConfig+0x24>
 80017d2:	2700      	movs	r7, #0
 80017d4:	e7df      	b.n	8001796 <HAL_RCC_OscConfig+0x1be>
 80017d6:	682b      	ldr	r3, [r5, #0]
 80017d8:	f443 7380 	orr.w	r3, r3, #256	@ 0x100
 80017dc:	602b      	str	r3, [r5, #0]
 80017de:	f7ff f891 	bl	8000904 <HAL_GetTick>
 80017e2:	4606      	mov	r6, r0
 80017e4:	682b      	ldr	r3, [r5, #0]
 80017e6:	05d9      	lsls	r1, r3, #23
 80017e8:	d4d9      	bmi.n	800179e <HAL_RCC_OscConfig+0x1c6>
 80017ea:	f7ff f88b 	bl	8000904 <HAL_GetTick>
 80017ee:	1b80      	subs	r0, r0, r6
 80017f0:	2802      	cmp	r0, #2
 80017f2:	d9f7      	bls.n	80017e4 <HAL_RCC_OscConfig+0x20c>
 80017f4:	e734      	b.n	8001660 <HAL_RCC_OscConfig+0x88>
 80017f6:	2b05      	cmp	r3, #5
 80017f8:	d104      	bne.n	8001804 <HAL_RCC_OscConfig+0x22c>
 80017fa:	6f2b      	ldr	r3, [r5, #112]	@ 0x70
 80017fc:	f043 0304 	orr.w	r3, r3, #4
 8001800:	672b      	str	r3, [r5, #112]	@ 0x70
 8001802:	e7d0      	b.n	80017a6 <HAL_RCC_OscConfig+0x1ce>
 8001804:	6f2a      	ldr	r2, [r5, #112]	@ 0x70
 8001806:	f022 0201 	bic.w	r2, r2, #1
 800180a:	672a      	str	r2, [r5, #112]	@ 0x70
 800180c:	6f2a      	ldr	r2, [r5, #112]	@ 0x70
 800180e:	f022 0204 	bic.w	r2, r2, #4
 8001812:	672a      	str	r2, [r5, #112]	@ 0x70
 8001814:	2b00      	cmp	r3, #0
 8001816:	d1ca      	bne.n	80017ae <HAL_RCC_OscConfig+0x1d6>
 8001818:	f7ff f874 	bl	8000904 <HAL_GetTick>
 800181c:	f241 3888 	movw	r8, #5000	@ 0x1388
 8001820:	4606      	mov	r6, r0
 8001822:	6f2b      	ldr	r3, [r5, #112]	@ 0x70
 8001824:	079b      	lsls	r3, r3, #30
 8001826:	d5cb      	bpl.n	80017c0 <HAL_RCC_OscConfig+0x1e8>
 8001828:	f7ff f86c 	bl	8000904 <HAL_GetTick>
 800182c:	1b80      	subs	r0, r0, r6
 800182e:	4540      	cmp	r0, r8
 8001830:	d9f7      	bls.n	8001822 <HAL_RCC_OscConfig+0x24a>
 8001832:	e715      	b.n	8001660 <HAL_RCC_OscConfig+0x88>
 8001834:	f7ff f866 	bl	8000904 <HAL_GetTick>
 8001838:	1b40      	subs	r0, r0, r5
 800183a:	4540      	cmp	r0, r8
 800183c:	d9bd      	bls.n	80017ba <HAL_RCC_OscConfig+0x1e2>
 800183e:	e70f      	b.n	8001660 <HAL_RCC_OscConfig+0x88>
 8001840:	40023800 	.word	0x40023800
 8001844:	42470000 	.word	0x42470000
 8001848:	40007000 	.word	0x40007000
 800184c:	4d37      	ldr	r5, [pc, #220]	@ (800192c <HAL_RCC_OscConfig+0x354>)
 800184e:	68aa      	ldr	r2, [r5, #8]
 8001850:	f002 020c 	and.w	r2, r2, #12
 8001854:	2a08      	cmp	r2, #8
 8001856:	d03e      	beq.n	80018d6 <HAL_RCC_OscConfig+0x2fe>
 8001858:	2b02      	cmp	r3, #2
 800185a:	4b35      	ldr	r3, [pc, #212]	@ (8001930 <HAL_RCC_OscConfig+0x358>)
 800185c:	f04f 0200 	mov.w	r2, #0
 8001860:	661a      	str	r2, [r3, #96]	@ 0x60
 8001862:	d12b      	bne.n	80018bc <HAL_RCC_OscConfig+0x2e4>
 8001864:	f7ff f84e 	bl	8000904 <HAL_GetTick>
 8001868:	4606      	mov	r6, r0
 800186a:	682b      	ldr	r3, [r5, #0]
 800186c:	0199      	lsls	r1, r3, #6
 800186e:	d41f      	bmi.n	80018b0 <HAL_RCC_OscConfig+0x2d8>
 8001870:	e9d4 3207 	ldrd	r3, r2, [r4, #28]
 8001874:	4313      	orrs	r3, r2
 8001876:	6a62      	ldr	r2, [r4, #36]	@ 0x24
 8001878:	ea43 1382 	orr.w	r3, r3, r2, lsl #6
 800187c:	6ae2      	ldr	r2, [r4, #44]	@ 0x2c
 800187e:	ea43 6302 	orr.w	r3, r3, r2, lsl #24
 8001882:	6aa2      	ldr	r2, [r4, #40]	@ 0x28
 8001884:	0852      	lsrs	r2, r2, #1
 8001886:	3a01      	subs	r2, #1
 8001888:	ea43 4302 	orr.w	r3, r3, r2, lsl #16
 800188c:	606b      	str	r3, [r5, #4]
 800188e:	4b28      	ldr	r3, [pc, #160]	@ (8001930 <HAL_RCC_OscConfig+0x358>)
 8001890:	4d26      	ldr	r5, [pc, #152]	@ (800192c <HAL_RCC_OscConfig+0x354>)
 8001892:	2201      	movs	r2, #1
 8001894:	661a      	str	r2, [r3, #96]	@ 0x60
 8001896:	f7ff f835 	bl	8000904 <HAL_GetTick>
 800189a:	4604      	mov	r4, r0
 800189c:	682b      	ldr	r3, [r5, #0]
 800189e:	019a      	lsls	r2, r3, #6
 80018a0:	f53f aeb0 	bmi.w	8001604 <HAL_RCC_OscConfig+0x2c>
 80018a4:	f7ff f82e 	bl	8000904 <HAL_GetTick>
 80018a8:	1b00      	subs	r0, r0, r4
 80018aa:	2802      	cmp	r0, #2
 80018ac:	d9f6      	bls.n	800189c <HAL_RCC_OscConfig+0x2c4>
 80018ae:	e6d7      	b.n	8001660 <HAL_RCC_OscConfig+0x88>
 80018b0:	f7ff f828 	bl	8000904 <HAL_GetTick>
 80018b4:	1b80      	subs	r0, r0, r6
 80018b6:	2802      	cmp	r0, #2
 80018b8:	d9d7      	bls.n	800186a <HAL_RCC_OscConfig+0x292>
 80018ba:	e6d1      	b.n	8001660 <HAL_RCC_OscConfig+0x88>
 80018bc:	f7ff f822 	bl	8000904 <HAL_GetTick>
 80018c0:	4604      	mov	r4, r0
 80018c2:	682b      	ldr	r3, [r5, #0]
 80018c4:	019b      	lsls	r3, r3, #6
 80018c6:	f57f ae9d 	bpl.w	8001604 <HAL_RCC_OscConfig+0x2c>
 80018ca:	f7ff f81b 	bl	8000904 <HAL_GetTick>
 80018ce:	1b00      	subs	r0, r0, r4
 80018d0:	2802      	cmp	r0, #2
 80018d2:	d9f6      	bls.n	80018c2 <HAL_RCC_OscConfig+0x2ea>
 80018d4:	e6c4      	b.n	8001660 <HAL_RCC_OscConfig+0x88>
 80018d6:	2b01      	cmp	r3, #1
 80018d8:	f43f aeab 	beq.w	8001632 <HAL_RCC_OscConfig+0x5a>
 80018dc:	686b      	ldr	r3, [r5, #4]
 80018de:	69e2      	ldr	r2, [r4, #28]
 80018e0:	f403 0180 	and.w	r1, r3, #4194304	@ 0x400000
 80018e4:	4291      	cmp	r1, r2
 80018e6:	f47f aea4 	bne.w	8001632 <HAL_RCC_OscConfig+0x5a>
 80018ea:	6a21      	ldr	r1, [r4, #32]
 80018ec:	f003 023f 	and.w	r2, r3, #63	@ 0x3f
 80018f0:	428a      	cmp	r2, r1
 80018f2:	f47f ae9e 	bne.w	8001632 <HAL_RCC_OscConfig+0x5a>
 80018f6:	6a61      	ldr	r1, [r4, #36]	@ 0x24
 80018f8:	f647 72c0 	movw	r2, #32704	@ 0x7fc0
 80018fc:	401a      	ands	r2, r3
 80018fe:	ebb2 1f81 	cmp.w	r2, r1, lsl #6
 8001902:	f47f ae96 	bne.w	8001632 <HAL_RCC_OscConfig+0x5a>
 8001906:	6aa2      	ldr	r2, [r4, #40]	@ 0x28
 8001908:	0852      	lsrs	r2, r2, #1
 800190a:	f403 3140 	and.w	r1, r3, #196608	@ 0x30000
 800190e:	3a01      	subs	r2, #1
 8001910:	ebb1 4f02 	cmp.w	r1, r2, lsl #16
 8001914:	f47f ae8d 	bne.w	8001632 <HAL_RCC_OscConfig+0x5a>
 8001918:	6ae2      	ldr	r2, [r4, #44]	@ 0x2c
 800191a:	f003 6370 	and.w	r3, r3, #251658240	@ 0xf000000
 800191e:	ebb3 6f02 	cmp.w	r3, r2, lsl #24
 8001922:	bf14      	ite	ne
 8001924:	2001      	movne	r0, #1
 8001926:	2000      	moveq	r0, #0
 8001928:	e69b      	b.n	8001662 <HAL_RCC_OscConfig+0x8a>
 800192a:	bf00      	nop
 800192c:	40023800 	.word	0x40023800
 8001930:	42470000 	.word	0x42470000

08001934 <HAL_RCC_GetSysClockFreq>:
 8001934:	4913      	ldr	r1, [pc, #76]	@ (8001984 <HAL_RCC_GetSysClockFreq+0x50>)
 8001936:	b508      	push	{r3, lr}
 8001938:	688b      	ldr	r3, [r1, #8]
 800193a:	f003 030c 	and.w	r3, r3, #12
 800193e:	2b04      	cmp	r3, #4
 8001940:	d01c      	beq.n	800197c <HAL_RCC_GetSysClockFreq+0x48>
 8001942:	2b08      	cmp	r3, #8
 8001944:	d11c      	bne.n	8001980 <HAL_RCC_GetSysClockFreq+0x4c>
 8001946:	684a      	ldr	r2, [r1, #4]
 8001948:	684b      	ldr	r3, [r1, #4]
 800194a:	6849      	ldr	r1, [r1, #4]
 800194c:	f413 0380 	ands.w	r3, r3, #4194304	@ 0x400000
 8001950:	bf14      	ite	ne
 8001952:	480d      	ldrne	r0, [pc, #52]	@ (8001988 <HAL_RCC_GetSysClockFreq+0x54>)
 8001954:	480d      	ldreq	r0, [pc, #52]	@ (800198c <HAL_RCC_GetSysClockFreq+0x58>)
 8001956:	f3c1 1188 	ubfx	r1, r1, #6, #9
 800195a:	bf18      	it	ne
 800195c:	2300      	movne	r3, #0
 800195e:	f002 023f 	and.w	r2, r2, #63	@ 0x3f
 8001962:	fba1 0100 	umull	r0, r1, r1, r0
 8001966:	f7fe fc43 	bl	80001f0 <__aeabi_uldivmod>
 800196a:	4b06      	ldr	r3, [pc, #24]	@ (8001984 <HAL_RCC_GetSysClockFreq+0x50>)
 800196c:	685b      	ldr	r3, [r3, #4]
 800196e:	f3c3 4301 	ubfx	r3, r3, #16, #2
 8001972:	3301      	adds	r3, #1
 8001974:	005b      	lsls	r3, r3, #1
 8001976:	fbb0 f0f3 	udiv	r0, r0, r3
 800197a:	bd08      	pop	{r3, pc}
 800197c:	4802      	ldr	r0, [pc, #8]	@ (8001988 <HAL_RCC_GetSysClockFreq+0x54>)
 800197e:	e7fc      	b.n	800197a <HAL_RCC_GetSysClockFreq+0x46>
 8001980:	4802      	ldr	r0, [pc, #8]	@ (800198c <HAL_RCC_GetSysClockFreq+0x58>)
 8001982:	e7fa      	b.n	800197a <HAL_RCC_GetSysClockFreq+0x46>
 8001984:	40023800 	.word	0x40023800
 8001988:	017d7840 	.word	0x017d7840
 800198c:	00f42400 	.word	0x00f42400

08001990 <HAL_RCC_ClockConfig>:
 8001990:	e92d 41f0 	stmdb	sp!, {r4, r5, r6, r7, r8, lr}
 8001994:	460d      	mov	r5, r1
 8001996:	4604      	mov	r4, r0
 8001998:	b910      	cbnz	r0, 80019a0 <HAL_RCC_ClockConfig+0x10>
 800199a:	2001      	movs	r0, #1
 800199c:	e8bd 81f0 	ldmia.w	sp!, {r4, r5, r6, r7, r8, pc}
 80019a0:	4b43      	ldr	r3, [pc, #268]	@ (8001ab0 <HAL_RCC_ClockConfig+0x120>)
 80019a2:	681a      	ldr	r2, [r3, #0]
 80019a4:	f002 0207 	and.w	r2, r2, #7
 80019a8:	428a      	cmp	r2, r1
 80019aa:	d328      	bcc.n	80019fe <HAL_RCC_ClockConfig+0x6e>
 80019ac:	6821      	ldr	r1, [r4, #0]
 80019ae:	078f      	lsls	r7, r1, #30
 80019b0:	d42d      	bmi.n	8001a0e <HAL_RCC_ClockConfig+0x7e>
 80019b2:	07c8      	lsls	r0, r1, #31
 80019b4:	d440      	bmi.n	8001a38 <HAL_RCC_ClockConfig+0xa8>
 80019b6:	4b3e      	ldr	r3, [pc, #248]	@ (8001ab0 <HAL_RCC_ClockConfig+0x120>)
 80019b8:	681a      	ldr	r2, [r3, #0]
 80019ba:	f002 0207 	and.w	r2, r2, #7
 80019be:	42aa      	cmp	r2, r5
 80019c0:	d865      	bhi.n	8001a8e <HAL_RCC_ClockConfig+0xfe>
 80019c2:	6822      	ldr	r2, [r4, #0]
 80019c4:	0751      	lsls	r1, r2, #29
 80019c6:	d46b      	bmi.n	8001aa0 <HAL_RCC_ClockConfig+0x110>
 80019c8:	0713      	lsls	r3, r2, #28
 80019ca:	d507      	bpl.n	80019dc <HAL_RCC_ClockConfig+0x4c>
 80019cc:	4a39      	ldr	r2, [pc, #228]	@ (8001ab4 <HAL_RCC_ClockConfig+0x124>)
 80019ce:	6921      	ldr	r1, [r4, #16]
 80019d0:	6893      	ldr	r3, [r2, #8]
 80019d2:	f423 4360 	bic.w	r3, r3, #57344	@ 0xe000
 80019d6:	ea43 03c1 	orr.w	r3, r3, r1, lsl #3
 80019da:	6093      	str	r3, [r2, #8]
 80019dc:	f7ff ffaa 	bl	8001934 <HAL_RCC_GetSysClockFreq>
 80019e0:	4b34      	ldr	r3, [pc, #208]	@ (8001ab4 <HAL_RCC_ClockConfig+0x124>)
 80019e2:	4a35      	ldr	r2, [pc, #212]	@ (8001ab8 <HAL_RCC_ClockConfig+0x128>)
 80019e4:	689b      	ldr	r3, [r3, #8]
 80019e6:	f3c3 1303 	ubfx	r3, r3, #4, #4
 80019ea:	5cd3      	ldrb	r3, [r2, r3]
 80019ec:	40d8      	lsrs	r0, r3
 80019ee:	4b33      	ldr	r3, [pc, #204]	@ (8001abc <HAL_RCC_ClockConfig+0x12c>)
 80019f0:	6018      	str	r0, [r3, #0]
 80019f2:	4b33      	ldr	r3, [pc, #204]	@ (8001ac0 <HAL_RCC_ClockConfig+0x130>)
 80019f4:	6818      	ldr	r0, [r3, #0]
 80019f6:	f7fe fe8f 	bl	8000718 <HAL_InitTick>
 80019fa:	2000      	movs	r0, #0
 80019fc:	e7ce      	b.n	800199c <HAL_RCC_ClockConfig+0xc>
 80019fe:	b2ca      	uxtb	r2, r1
 8001a00:	701a      	strb	r2, [r3, #0]
 8001a02:	681b      	ldr	r3, [r3, #0]
 8001a04:	f003 0307 	and.w	r3, r3, #7
 8001a08:	428b      	cmp	r3, r1
 8001a0a:	d1c6      	bne.n	800199a <HAL_RCC_ClockConfig+0xa>
 8001a0c:	e7ce      	b.n	80019ac <HAL_RCC_ClockConfig+0x1c>
 8001a0e:	4b29      	ldr	r3, [pc, #164]	@ (8001ab4 <HAL_RCC_ClockConfig+0x124>)
 8001a10:	f011 0f04 	tst.w	r1, #4
 8001a14:	bf1e      	ittt	ne
 8001a16:	689a      	ldrne	r2, [r3, #8]
 8001a18:	f442 52e0 	orrne.w	r2, r2, #7168	@ 0x1c00
 8001a1c:	609a      	strne	r2, [r3, #8]
 8001a1e:	070e      	lsls	r6, r1, #28
 8001a20:	bf42      	ittt	mi
 8001a22:	689a      	ldrmi	r2, [r3, #8]
 8001a24:	f442 4260 	orrmi.w	r2, r2, #57344	@ 0xe000
 8001a28:	609a      	strmi	r2, [r3, #8]
 8001a2a:	689a      	ldr	r2, [r3, #8]
 8001a2c:	68a0      	ldr	r0, [r4, #8]
 8001a2e:	f022 02f0 	bic.w	r2, r2, #240	@ 0xf0
 8001a32:	4302      	orrs	r2, r0
 8001a34:	609a      	str	r2, [r3, #8]
 8001a36:	e7bc      	b.n	80019b2 <HAL_RCC_ClockConfig+0x22>
 8001a38:	6862      	ldr	r2, [r4, #4]
 8001a3a:	4b1e      	ldr	r3, [pc, #120]	@ (8001ab4 <HAL_RCC_ClockConfig+0x124>)
 8001a3c:	2a01      	cmp	r2, #1
 8001a3e:	d11c      	bne.n	8001a7a <HAL_RCC_ClockConfig+0xea>
 8001a40:	681b      	ldr	r3, [r3, #0]
 8001a42:	f413 3f00 	tst.w	r3, #131072	@ 0x20000
 8001a46:	d0a8      	beq.n	800199a <HAL_RCC_ClockConfig+0xa>
 8001a48:	4e1a      	ldr	r6, [pc, #104]	@ (8001ab4 <HAL_RCC_ClockConfig+0x124>)
 8001a4a:	68b3      	ldr	r3, [r6, #8]
 8001a4c:	f023 0303 	bic.w	r3, r3, #3
 8001a50:	4313      	orrs	r3, r2
 8001a52:	60b3      	str	r3, [r6, #8]
 8001a54:	f7fe ff56 	bl	8000904 <HAL_GetTick>
 8001a58:	f241 3888 	movw	r8, #5000	@ 0x1388
 8001a5c:	4607      	mov	r7, r0
 8001a5e:	68b3      	ldr	r3, [r6, #8]
 8001a60:	6862      	ldr	r2, [r4, #4]
 8001a62:	f003 030c 	and.w	r3, r3, #12
 8001a66:	ebb3 0f82 	cmp.w	r3, r2, lsl #2
 8001a6a:	d0a4      	beq.n	80019b6 <HAL_RCC_ClockConfig+0x26>
 8001a6c:	f7fe ff4a 	bl	8000904 <HAL_GetTick>
 8001a70:	1bc0      	subs	r0, r0, r7
 8001a72:	4540      	cmp	r0, r8
 8001a74:	d9f3      	bls.n	8001a5e <HAL_RCC_ClockConfig+0xce>
 8001a76:	2003      	movs	r0, #3
 8001a78:	e790      	b.n	800199c <HAL_RCC_ClockConfig+0xc>
 8001a7a:	1e91      	subs	r1, r2, #2
 8001a7c:	2901      	cmp	r1, #1
 8001a7e:	681b      	ldr	r3, [r3, #0]
 8001a80:	d802      	bhi.n	8001a88 <HAL_RCC_ClockConfig+0xf8>
 8001a82:	f013 7f00 	tst.w	r3, #33554432	@ 0x2000000
 8001a86:	e7de      	b.n	8001a46 <HAL_RCC_ClockConfig+0xb6>
 8001a88:	f013 0f02 	tst.w	r3, #2
 8001a8c:	e7db      	b.n	8001a46 <HAL_RCC_ClockConfig+0xb6>
 8001a8e:	b2ea      	uxtb	r2, r5
 8001a90:	701a      	strb	r2, [r3, #0]
 8001a92:	681b      	ldr	r3, [r3, #0]
 8001a94:	f003 0307 	and.w	r3, r3, #7
 8001a98:	42ab      	cmp	r3, r5
 8001a9a:	f47f af7e 	bne.w	800199a <HAL_RCC_ClockConfig+0xa>
 8001a9e:	e790      	b.n	80019c2 <HAL_RCC_ClockConfig+0x32>
 8001aa0:	4904      	ldr	r1, [pc, #16]	@ (8001ab4 <HAL_RCC_ClockConfig+0x124>)
 8001aa2:	68e0      	ldr	r0, [r4, #12]
 8001aa4:	688b      	ldr	r3, [r1, #8]
 8001aa6:	f423 53e0 	bic.w	r3, r3, #7168	@ 0x1c00
 8001aaa:	4303      	orrs	r3, r0
 8001aac:	608b      	str	r3, [r1, #8]
 8001aae:	e78b      	b.n	80019c8 <HAL_RCC_ClockConfig+0x38>
 8001ab0:	40023c00 	.word	0x40023c00
 8001ab4:	40023800 	.word	0x40023800
 8001ab8:	08004eb0 	.word	0x08004eb0
 8001abc:	20000000 	.word	0x20000000
 8001ac0:	20000008 	.word	0x20000008

08001ac4 <HAL_RCC_GetHCLKFreq>:
 8001ac4:	4b01      	ldr	r3, [pc, #4]	@ (8001acc <HAL_RCC_GetHCLKFreq+0x8>)
 8001ac6:	6818      	ldr	r0, [r3, #0]
 8001ac8:	4770      	bx	lr
 8001aca:	bf00      	nop
 8001acc:	20000000 	.word	0x20000000

08001ad0 <HAL_RCC_GetPCLK1Freq>:
 8001ad0:	4b04      	ldr	r3, [pc, #16]	@ (8001ae4 <HAL_RCC_GetPCLK1Freq+0x14>)
 8001ad2:	4a05      	ldr	r2, [pc, #20]	@ (8001ae8 <HAL_RCC_GetPCLK1Freq+0x18>)
 8001ad4:	689b      	ldr	r3, [r3, #8]
 8001ad6:	f3c3 2382 	ubfx	r3, r3, #10, #3
 8001ada:	5cd3      	ldrb	r3, [r2, r3]
 8001adc:	4a03      	ldr	r2, [pc, #12]	@ (8001aec <HAL_RCC_GetPCLK1Freq+0x1c>)
 8001ade:	6810      	ldr	r0, [r2, #0]
 8001ae0:	40d8      	lsrs	r0, r3
 8001ae2:	4770      	bx	lr
 8001ae4:	40023800 	.word	0x40023800
 8001ae8:	08004ea8 	.word	0x08004ea8
 8001aec:	20000000 	.word	0x20000000

08001af0 <HAL_RCC_GetClockConfig>:
 8001af0:	230f      	movs	r3, #15
 8001af2:	6003      	str	r3, [r0, #0]
 8001af4:	4b0b      	ldr	r3, [pc, #44]	@ (8001b24 <HAL_RCC_GetClockConfig+0x34>)
 8001af6:	689a      	ldr	r2, [r3, #8]
 8001af8:	f002 0203 	and.w	r2, r2, #3
 8001afc:	6042      	str	r2, [r0, #4]
 8001afe:	689a      	ldr	r2, [r3, #8]
 8001b00:	f002 02f0 	and.w	r2, r2, #240	@ 0xf0
 8001b04:	6082      	str	r2, [r0, #8]
 8001b06:	689a      	ldr	r2, [r3, #8]
 8001b08:	f402 52e0 	and.w	r2, r2, #7168	@ 0x1c00
 8001b0c:	60c2      	str	r2, [r0, #12]
 8001b0e:	689b      	ldr	r3, [r3, #8]
 8001b10:	08db      	lsrs	r3, r3, #3
 8001b12:	f403 53e0 	and.w	r3, r3, #7168	@ 0x1c00
 8001b16:	6103      	str	r3, [r0, #16]
 8001b18:	4b03      	ldr	r3, [pc, #12]	@ (8001b28 <HAL_RCC_GetClockConfig+0x38>)
 8001b1a:	681b      	ldr	r3, [r3, #0]
 8001b1c:	f003 0307 	and.w	r3, r3, #7
 8001b20:	600b      	str	r3, [r1, #0]
 8001b22:	4770      	bx	lr
 8001b24:	40023800 	.word	0x40023800
 8001b28:	40023c00 	.word	0x40023c00

08001b2c <HAL_TIM_Base_MspInit>:
 8001b2c:	4770      	bx	lr
	...

08001b30 <HAL_TIM_Base_Start_IT>:
 8001b30:	f890 303d 	ldrb.w	r3, [r0, #61]	@ 0x3d
 8001b34:	2b01      	cmp	r3, #1
 8001b36:	d128      	bne.n	8001b8a <HAL_TIM_Base_Start_IT+0x5a>
 8001b38:	2302      	movs	r3, #2
 8001b3a:	f880 303d 	strb.w	r3, [r0, #61]	@ 0x3d
 8001b3e:	6803      	ldr	r3, [r0, #0]
 8001b40:	68da      	ldr	r2, [r3, #12]
 8001b42:	f042 0201 	orr.w	r2, r2, #1
 8001b46:	60da      	str	r2, [r3, #12]
 8001b48:	4a11      	ldr	r2, [pc, #68]	@ (8001b90 <HAL_TIM_Base_Start_IT+0x60>)
 8001b4a:	4293      	cmp	r3, r2
 8001b4c:	d012      	beq.n	8001b74 <HAL_TIM_Base_Start_IT+0x44>
 8001b4e:	f1b3 4f80 	cmp.w	r3, #1073741824	@ 0x40000000
 8001b52:	d00f      	beq.n	8001b74 <HAL_TIM_Base_Start_IT+0x44>
 8001b54:	f5a2 427c 	sub.w	r2, r2, #64512	@ 0xfc00
 8001b58:	4293      	cmp	r3, r2
 8001b5a:	d00b      	beq.n	8001b74 <HAL_TIM_Base_Start_IT+0x44>
 8001b5c:	f502 6280 	add.w	r2, r2, #1024	@ 0x400
 8001b60:	4293      	cmp	r3, r2
 8001b62:	d007      	beq.n	8001b74 <HAL_TIM_Base_Start_IT+0x44>
 8001b64:	f502 6280 	add.w	r2, r2, #1024	@ 0x400
 8001b68:	4293      	cmp	r3, r2
 8001b6a:	d003      	beq.n	8001b74 <HAL_TIM_Base_Start_IT+0x44>
 8001b6c:	f502 329a 	add.w	r2, r2, #78848	@ 0x13400
 8001b70:	4293      	cmp	r3, r2
 8001b72:	d104      	bne.n	8001b7e <HAL_TIM_Base_Start_IT+0x4e>
 8001b74:	689a      	ldr	r2, [r3, #8]
 8001b76:	f002 0207 	and.w	r2, r2, #7
 8001b7a:	2a06      	cmp	r2, #6
 8001b7c:	d003      	beq.n	8001b86 <HAL_TIM_Base_Start_IT+0x56>
 8001b7e:	681a      	ldr	r2, [r3, #0]
 8001b80:	f042 0201 	orr.w	r2, r2, #1
 8001b84:	601a      	str	r2, [r3, #0]
 8001b86:	2000      	movs	r0, #0
 8001b88:	4770      	bx	lr
 8001b8a:	2001      	movs	r0, #1
 8001b8c:	4770      	bx	lr
 8001b8e:	bf00      	nop
 8001b90:	40010000 	.word	0x40010000

08001b94 <HAL_TIM_OC_DelayElapsedCallback>:
 8001b94:	4770      	bx	lr

08001b96 <HAL_TIM_IC_CaptureCallback>:
 8001b96:	4770      	bx	lr

08001b98 <HAL_TIM_PWM_PulseFinishedCallback>:
 8001b98:	4770      	bx	lr

08001b9a <HAL_TIM_TriggerCallback>:
 8001b9a:	4770      	bx	lr

08001b9c <HAL_TIM_IRQHandler>:
 8001b9c:	6803      	ldr	r3, [r0, #0]
 8001b9e:	b570      	push	{r4, r5, r6, lr}
 8001ba0:	68dd      	ldr	r5, [r3, #12]
 8001ba2:	691e      	ldr	r6, [r3, #16]
 8001ba4:	07b1      	lsls	r1, r6, #30
 8001ba6:	4604      	mov	r4, r0
 8001ba8:	d50d      	bpl.n	8001bc6 <HAL_TIM_IRQHandler+0x2a>
 8001baa:	07aa      	lsls	r2, r5, #30
 8001bac:	d50b      	bpl.n	8001bc6 <HAL_TIM_IRQHandler+0x2a>
 8001bae:	f06f 0202 	mvn.w	r2, #2
 8001bb2:	611a      	str	r2, [r3, #16]
 8001bb4:	2201      	movs	r2, #1
 8001bb6:	7702      	strb	r2, [r0, #28]
 8001bb8:	699b      	ldr	r3, [r3, #24]
 8001bba:	079b      	lsls	r3, r3, #30
 8001bbc:	d069      	beq.n	8001c92 <HAL_TIM_IRQHandler+0xf6>
 8001bbe:	f7ff ffea 	bl	8001b96 <HAL_TIM_IC_CaptureCallback>
 8001bc2:	2300      	movs	r3, #0
 8001bc4:	7723      	strb	r3, [r4, #28]
 8001bc6:	0771      	lsls	r1, r6, #29
 8001bc8:	d510      	bpl.n	8001bec <HAL_TIM_IRQHandler+0x50>
 8001bca:	076a      	lsls	r2, r5, #29
 8001bcc:	d50e      	bpl.n	8001bec <HAL_TIM_IRQHandler+0x50>
 8001bce:	6823      	ldr	r3, [r4, #0]
 8001bd0:	f06f 0204 	mvn.w	r2, #4
 8001bd4:	611a      	str	r2, [r3, #16]
 8001bd6:	2202      	movs	r2, #2
 8001bd8:	7722      	strb	r2, [r4, #28]
 8001bda:	699b      	ldr	r3, [r3, #24]
 8001bdc:	f413 7f40 	tst.w	r3, #768	@ 0x300
 8001be0:	4620      	mov	r0, r4
 8001be2:	d05c      	beq.n	8001c9e <HAL_TIM_IRQHandler+0x102>
 8001be4:	f7ff ffd7 	bl	8001b96 <HAL_TIM_IC_CaptureCallback>
 8001be8:	2300      	movs	r3, #0
 8001bea:	7723      	strb	r3, [r4, #28]
 8001bec:	0733      	lsls	r3, r6, #28
 8001bee:	d50f      	bpl.n	8001c10 <HAL_TIM_IRQHandler+0x74>
 8001bf0:	0728      	lsls	r0, r5, #28
 8001bf2:	d50d      	bpl.n	8001c10 <HAL_TIM_IRQHandler+0x74>
 8001bf4:	6823      	ldr	r3, [r4, #0]
 8001bf6:	f06f 0208 	mvn.w	r2, #8
 8001bfa:	611a      	str	r2, [r3, #16]
 8001bfc:	2204      	movs	r2, #4
 8001bfe:	7722      	strb	r2, [r4, #28]
 8001c00:	69db      	ldr	r3, [r3, #28]
 8001c02:	0799      	lsls	r1, r3, #30
 8001c04:	4620      	mov	r0, r4
 8001c06:	d050      	beq.n	8001caa <HAL_TIM_IRQHandler+0x10e>
 8001c08:	f7ff ffc5 	bl	8001b96 <HAL_TIM_IC_CaptureCallback>
 8001c0c:	2300      	movs	r3, #0
 8001c0e:	7723      	strb	r3, [r4, #28]
 8001c10:	06f2      	lsls	r2, r6, #27
 8001c12:	d510      	bpl.n	8001c36 <HAL_TIM_IRQHandler+0x9a>
 8001c14:	06eb      	lsls	r3, r5, #27
 8001c16:	d50e      	bpl.n	8001c36 <HAL_TIM_IRQHandler+0x9a>
 8001c18:	6823      	ldr	r3, [r4, #0]
 8001c1a:	f06f 0210 	mvn.w	r2, #16
 8001c1e:	611a      	str	r2, [r3, #16]
 8001c20:	2208      	movs	r2, #8
 8001c22:	7722      	strb	r2, [r4, #28]
 8001c24:	69db      	ldr	r3, [r3, #28]
 8001c26:	f413 7f40 	tst.w	r3, #768	@ 0x300
 8001c2a:	4620      	mov	r0, r4
 8001c2c:	d043      	beq.n	8001cb6 <HAL_TIM_IRQHandler+0x11a>
 8001c2e:	f7ff ffb2 	bl	8001b96 <HAL_TIM_IC_CaptureCallback>
 8001c32:	2300      	movs	r3, #0
 8001c34:	7723      	strb	r3, [r4, #28]
 8001c36:	07f0      	lsls	r0, r6, #31
 8001c38:	d508      	bpl.n	8001c4c <HAL_TIM_IRQHandler+0xb0>
 8001c3a:	07e9      	lsls	r1, r5, #31
 8001c3c:	d506      	bpl.n	8001c4c <HAL_TIM_IRQHandler+0xb0>
 8001c3e:	6823      	ldr	r3, [r4, #0]
 8001c40:	f06f 0201 	mvn.w	r2, #1
 8001c44:	611a      	str	r2, [r3, #16]
 8001c46:	4620      	mov	r0, r4
 8001c48:	f7fe fd3a 	bl	80006c0 <HAL_TIM_PeriodElapsedCallback>
 8001c4c:	0632      	lsls	r2, r6, #24
 8001c4e:	d508      	bpl.n	8001c62 <HAL_TIM_IRQHandler+0xc6>
 8001c50:	062b      	lsls	r3, r5, #24
 8001c52:	d506      	bpl.n	8001c62 <HAL_TIM_IRQHandler+0xc6>
 8001c54:	6823      	ldr	r3, [r4, #0]
 8001c56:	f06f 0280 	mvn.w	r2, #128	@ 0x80
 8001c5a:	611a      	str	r2, [r3, #16]
 8001c5c:	4620      	mov	r0, r4
 8001c5e:	f000 f8b2 	bl	8001dc6 <HAL_TIMEx_BreakCallback>
 8001c62:	0670      	lsls	r0, r6, #25
 8001c64:	d508      	bpl.n	8001c78 <HAL_TIM_IRQHandler+0xdc>
 8001c66:	0669      	lsls	r1, r5, #25
 8001c68:	d506      	bpl.n	8001c78 <HAL_TIM_IRQHandler+0xdc>
 8001c6a:	6823      	ldr	r3, [r4, #0]
 8001c6c:	f06f 0240 	mvn.w	r2, #64	@ 0x40
 8001c70:	611a      	str	r2, [r3, #16]
 8001c72:	4620      	mov	r0, r4
 8001c74:	f7ff ff91 	bl	8001b9a <HAL_TIM_TriggerCallback>
 8001c78:	06b2      	lsls	r2, r6, #26
 8001c7a:	d522      	bpl.n	8001cc2 <HAL_TIM_IRQHandler+0x126>
 8001c7c:	06ab      	lsls	r3, r5, #26
 8001c7e:	d520      	bpl.n	8001cc2 <HAL_TIM_IRQHandler+0x126>
 8001c80:	6823      	ldr	r3, [r4, #0]
 8001c82:	f06f 0220 	mvn.w	r2, #32
 8001c86:	4620      	mov	r0, r4
 8001c88:	611a      	str	r2, [r3, #16]
 8001c8a:	e8bd 4070 	ldmia.w	sp!, {r4, r5, r6, lr}
 8001c8e:	f000 b899 	b.w	8001dc4 <HAL_TIMEx_CommutCallback>
 8001c92:	f7ff ff7f 	bl	8001b94 <HAL_TIM_OC_DelayElapsedCallback>
 8001c96:	4620      	mov	r0, r4
 8001c98:	f7ff ff7e 	bl	8001b98 <HAL_TIM_PWM_PulseFinishedCallback>
 8001c9c:	e791      	b.n	8001bc2 <HAL_TIM_IRQHandler+0x26>
 8001c9e:	f7ff ff79 	bl	8001b94 <HAL_TIM_OC_DelayElapsedCallback>
 8001ca2:	4620      	mov	r0, r4
 8001ca4:	f7ff ff78 	bl	8001b98 <HAL_TIM_PWM_PulseFinishedCallback>
 8001ca8:	e79e      	b.n	8001be8 <HAL_TIM_IRQHandler+0x4c>
 8001caa:	f7ff ff73 	bl	8001b94 <HAL_TIM_OC_DelayElapsedCallback>
 8001cae:	4620      	mov	r0, r4
 8001cb0:	f7ff ff72 	bl	8001b98 <HAL_TIM_PWM_PulseFinishedCallback>
 8001cb4:	e7aa      	b.n	8001c0c <HAL_TIM_IRQHandler+0x70>
 8001cb6:	f7ff ff6d 	bl	8001b94 <HAL_TIM_OC_DelayElapsedCallback>
 8001cba:	4620      	mov	r0, r4
 8001cbc:	f7ff ff6c 	bl	8001b98 <HAL_TIM_PWM_PulseFinishedCallback>
 8001cc0:	e7b7      	b.n	8001c32 <HAL_TIM_IRQHandler+0x96>
 8001cc2:	bd70      	pop	{r4, r5, r6, pc}

08001cc4 <TIM_Base_SetConfig>:
 8001cc4:	4a27      	ldr	r2, [pc, #156]	@ (8001d64 <TIM_Base_SetConfig+0xa0>)
 8001cc6:	6803      	ldr	r3, [r0, #0]
 8001cc8:	4290      	cmp	r0, r2
 8001cca:	d00e      	beq.n	8001cea <TIM_Base_SetConfig+0x26>
 8001ccc:	f1b0 4f80 	cmp.w	r0, #1073741824	@ 0x40000000
 8001cd0:	d00b      	beq.n	8001cea <TIM_Base_SetConfig+0x26>
 8001cd2:	f5a2 427c 	sub.w	r2, r2, #64512	@ 0xfc00
 8001cd6:	4290      	cmp	r0, r2
 8001cd8:	d007      	beq.n	8001cea <TIM_Base_SetConfig+0x26>
 8001cda:	f502 6280 	add.w	r2, r2, #1024	@ 0x400
 8001cde:	4290      	cmp	r0, r2
 8001ce0:	d003      	beq.n	8001cea <TIM_Base_SetConfig+0x26>
 8001ce2:	f502 6280 	add.w	r2, r2, #1024	@ 0x400
 8001ce6:	4290      	cmp	r0, r2
 8001ce8:	d115      	bne.n	8001d16 <TIM_Base_SetConfig+0x52>
 8001cea:	684a      	ldr	r2, [r1, #4]
 8001cec:	f023 0370 	bic.w	r3, r3, #112	@ 0x70
 8001cf0:	4313      	orrs	r3, r2
 8001cf2:	4a1c      	ldr	r2, [pc, #112]	@ (8001d64 <TIM_Base_SetConfig+0xa0>)
 8001cf4:	4290      	cmp	r0, r2
 8001cf6:	d019      	beq.n	8001d2c <TIM_Base_SetConfig+0x68>
 8001cf8:	f1b0 4f80 	cmp.w	r0, #1073741824	@ 0x40000000
 8001cfc:	d016      	beq.n	8001d2c <TIM_Base_SetConfig+0x68>
 8001cfe:	f5a2 427c 	sub.w	r2, r2, #64512	@ 0xfc00
 8001d02:	4290      	cmp	r0, r2
 8001d04:	d012      	beq.n	8001d2c <TIM_Base_SetConfig+0x68>
 8001d06:	f502 6280 	add.w	r2, r2, #1024	@ 0x400
 8001d0a:	4290      	cmp	r0, r2
 8001d0c:	d00e      	beq.n	8001d2c <TIM_Base_SetConfig+0x68>
 8001d0e:	f502 6280 	add.w	r2, r2, #1024	@ 0x400
 8001d12:	4290      	cmp	r0, r2
 8001d14:	d00a      	beq.n	8001d2c <TIM_Base_SetConfig+0x68>
 8001d16:	4a14      	ldr	r2, [pc, #80]	@ (8001d68 <TIM_Base_SetConfig+0xa4>)
 8001d18:	4290      	cmp	r0, r2
 8001d1a:	d007      	beq.n	8001d2c <TIM_Base_SetConfig+0x68>
 8001d1c:	f502 6280 	add.w	r2, r2, #1024	@ 0x400
 8001d20:	4290      	cmp	r0, r2
 8001d22:	d003      	beq.n	8001d2c <TIM_Base_SetConfig+0x68>
 8001d24:	f502 6280 	add.w	r2, r2, #1024	@ 0x400
 8001d28:	4290      	cmp	r0, r2
 8001d2a:	d103      	bne.n	8001d34 <TIM_Base_SetConfig+0x70>
 8001d2c:	68ca      	ldr	r2, [r1, #12]
 8001d2e:	f423 7340 	bic.w	r3, r3, #768	@ 0x300
 8001d32:	4313      	orrs	r3, r2
 8001d34:	694a      	ldr	r2, [r1, #20]
 8001d36:	f023 0380 	bic.w	r3, r3, #128	@ 0x80
 8001d3a:	4313      	orrs	r3, r2
 8001d3c:	6003      	str	r3, [r0, #0]
 8001d3e:	688b      	ldr	r3, [r1, #8]
 8001d40:	62c3      	str	r3, [r0, #44]	@ 0x2c
 8001d42:	680b      	ldr	r3, [r1, #0]
 8001d44:	6283      	str	r3, [r0, #40]	@ 0x28
 8001d46:	4b07      	ldr	r3, [pc, #28]	@ (8001d64 <TIM_Base_SetConfig+0xa0>)
 8001d48:	4298      	cmp	r0, r3
 8001d4a:	bf04      	itt	eq
 8001d4c:	690b      	ldreq	r3, [r1, #16]
 8001d4e:	6303      	streq	r3, [r0, #48]	@ 0x30
 8001d50:	2301      	movs	r3, #1
 8001d52:	6143      	str	r3, [r0, #20]
 8001d54:	6903      	ldr	r3, [r0, #16]
 8001d56:	07db      	lsls	r3, r3, #31
 8001d58:	bf42      	ittt	mi
 8001d5a:	6903      	ldrmi	r3, [r0, #16]
 8001d5c:	f023 0301 	bicmi.w	r3, r3, #1
 8001d60:	6103      	strmi	r3, [r0, #16]
 8001d62:	4770      	bx	lr
 8001d64:	40010000 	.word	0x40010000
 8001d68:	40014000 	.word	0x40014000

08001d6c <HAL_TIM_Base_Init>:
 8001d6c:	b510      	push	{r4, lr}
 8001d6e:	4604      	mov	r4, r0
 8001d70:	b330      	cbz	r0, 8001dc0 <HAL_TIM_Base_Init+0x54>
 8001d72:	f890 303d 	ldrb.w	r3, [r0, #61]	@ 0x3d
 8001d76:	f003 02ff 	and.w	r2, r3, #255	@ 0xff
 8001d7a:	b91b      	cbnz	r3, 8001d84 <HAL_TIM_Base_Init+0x18>
 8001d7c:	f880 203c 	strb.w	r2, [r0, #60]	@ 0x3c
 8001d80:	f7ff fed4 	bl	8001b2c <HAL_TIM_Base_MspInit>
 8001d84:	2302      	movs	r3, #2
 8001d86:	6820      	ldr	r0, [r4, #0]
 8001d88:	f884 303d 	strb.w	r3, [r4, #61]	@ 0x3d
 8001d8c:	1d21      	adds	r1, r4, #4
 8001d8e:	f7ff ff99 	bl	8001cc4 <TIM_Base_SetConfig>
 8001d92:	2301      	movs	r3, #1
 8001d94:	f884 3046 	strb.w	r3, [r4, #70]	@ 0x46
 8001d98:	2000      	movs	r0, #0
 8001d9a:	f884 303e 	strb.w	r3, [r4, #62]	@ 0x3e
 8001d9e:	f884 303f 	strb.w	r3, [r4, #63]	@ 0x3f
 8001da2:	f884 3040 	strb.w	r3, [r4, #64]	@ 0x40
 8001da6:	f884 3041 	strb.w	r3, [r4, #65]	@ 0x41
 8001daa:	f884 3042 	strb.w	r3, [r4, #66]	@ 0x42
 8001dae:	f884 3043 	strb.w	r3, [r4, #67]	@ 0x43
 8001db2:	f884 3044 	strb.w	r3, [r4, #68]	@ 0x44
 8001db6:	f884 3045 	strb.w	r3, [r4, #69]	@ 0x45
 8001dba:	f884 303d 	strb.w	r3, [r4, #61]	@ 0x3d
 8001dbe:	bd10      	pop	{r4, pc}
 8001dc0:	2001      	movs	r0, #1
 8001dc2:	e7fc      	b.n	8001dbe <HAL_TIM_Base_Init+0x52>

08001dc4 <HAL_TIMEx_CommutCallback>:
 8001dc4:	4770      	bx	lr

08001dc6 <HAL_TIMEx_BreakCallback>:
 8001dc6:	4770      	bx	lr

08001dc8 <USB_CoreReset>:
 8001dc8:	b082      	sub	sp, #8
 8001dca:	2300      	movs	r3, #0
 8001dcc:	4602      	mov	r2, r0
 8001dce:	9301      	str	r3, [sp, #4]
 8001dd0:	9b01      	ldr	r3, [sp, #4]
 8001dd2:	3301      	adds	r3, #1
 8001dd4:	9301      	str	r3, [sp, #4]
 8001dd6:	9b01      	ldr	r3, [sp, #4]
 8001dd8:	f1b3 6f70 	cmp.w	r3, #251658240	@ 0xf000000
 8001ddc:	d815      	bhi.n	8001e0a <USB_CoreReset+0x42>
 8001dde:	6913      	ldr	r3, [r2, #16]
 8001de0:	2b00      	cmp	r3, #0
 8001de2:	daf5      	bge.n	8001dd0 <USB_CoreReset+0x8>
 8001de4:	2300      	movs	r3, #0
 8001de6:	9301      	str	r3, [sp, #4]
 8001de8:	6913      	ldr	r3, [r2, #16]
 8001dea:	f043 0301 	orr.w	r3, r3, #1
 8001dee:	6113      	str	r3, [r2, #16]
 8001df0:	9b01      	ldr	r3, [sp, #4]
 8001df2:	3301      	adds	r3, #1
 8001df4:	9301      	str	r3, [sp, #4]
 8001df6:	9b01      	ldr	r3, [sp, #4]
 8001df8:	f1b3 6f70 	cmp.w	r3, #251658240	@ 0xf000000
 8001dfc:	d805      	bhi.n	8001e0a <USB_CoreReset+0x42>
 8001dfe:	6910      	ldr	r0, [r2, #16]
 8001e00:	f010 0001 	ands.w	r0, r0, #1
 8001e04:	d1f4      	bne.n	8001df0 <USB_CoreReset+0x28>
 8001e06:	b002      	add	sp, #8
 8001e08:	4770      	bx	lr
 8001e0a:	2003      	movs	r0, #3
 8001e0c:	e7fb      	b.n	8001e06 <USB_CoreReset+0x3e>

08001e0e <USB_CoreInit>:
 8001e0e:	b084      	sub	sp, #16
 8001e10:	b538      	push	{r3, r4, r5, lr}
 8001e12:	ad05      	add	r5, sp, #20
 8001e14:	e885 000e 	stmia.w	r5, {r1, r2, r3}
 8001e18:	f89d 3019 	ldrb.w	r3, [sp, #25]
 8001e1c:	2b01      	cmp	r3, #1
 8001e1e:	4604      	mov	r4, r0
 8001e20:	d127      	bne.n	8001e72 <USB_CoreInit+0x64>
 8001e22:	6b83      	ldr	r3, [r0, #56]	@ 0x38
 8001e24:	f423 3380 	bic.w	r3, r3, #65536	@ 0x10000
 8001e28:	6383      	str	r3, [r0, #56]	@ 0x38
 8001e2a:	68c3      	ldr	r3, [r0, #12]
 8001e2c:	f423 0384 	bic.w	r3, r3, #4325376	@ 0x420000
 8001e30:	f023 0340 	bic.w	r3, r3, #64	@ 0x40
 8001e34:	60c3      	str	r3, [r0, #12]
 8001e36:	68c3      	ldr	r3, [r0, #12]
 8001e38:	f423 1340 	bic.w	r3, r3, #3145728	@ 0x300000
 8001e3c:	60c3      	str	r3, [r0, #12]
 8001e3e:	f89d 3020 	ldrb.w	r3, [sp, #32]
 8001e42:	2b01      	cmp	r3, #1
 8001e44:	bf02      	ittt	eq
 8001e46:	68c3      	ldreq	r3, [r0, #12]
 8001e48:	f443 1380 	orreq.w	r3, r3, #1048576	@ 0x100000
 8001e4c:	60c3      	streq	r3, [r0, #12]
 8001e4e:	f7ff ffbb 	bl	8001dc8 <USB_CoreReset>
 8001e52:	f89d 3016 	ldrb.w	r3, [sp, #22]
 8001e56:	2b01      	cmp	r3, #1
 8001e58:	d107      	bne.n	8001e6a <USB_CoreInit+0x5c>
 8001e5a:	68a3      	ldr	r3, [r4, #8]
 8001e5c:	f043 0306 	orr.w	r3, r3, #6
 8001e60:	60a3      	str	r3, [r4, #8]
 8001e62:	68a3      	ldr	r3, [r4, #8]
 8001e64:	f043 0320 	orr.w	r3, r3, #32
 8001e68:	60a3      	str	r3, [r4, #8]
 8001e6a:	e8bd 4038 	ldmia.w	sp!, {r3, r4, r5, lr}
 8001e6e:	b004      	add	sp, #16
 8001e70:	4770      	bx	lr
 8001e72:	68c3      	ldr	r3, [r0, #12]
 8001e74:	f043 0340 	orr.w	r3, r3, #64	@ 0x40
 8001e78:	60c3      	str	r3, [r0, #12]
 8001e7a:	f7ff ffa5 	bl	8001dc8 <USB_CoreReset>
 8001e7e:	f89d 301d 	ldrb.w	r3, [sp, #29]
 8001e82:	b923      	cbnz	r3, 8001e8e <USB_CoreInit+0x80>
 8001e84:	6ba3      	ldr	r3, [r4, #56]	@ 0x38
 8001e86:	f443 3380 	orr.w	r3, r3, #65536	@ 0x10000
 8001e8a:	63a3      	str	r3, [r4, #56]	@ 0x38
 8001e8c:	e7e1      	b.n	8001e52 <USB_CoreInit+0x44>
 8001e8e:	6ba3      	ldr	r3, [r4, #56]	@ 0x38
 8001e90:	f423 3380 	bic.w	r3, r3, #65536	@ 0x10000
 8001e94:	e7f9      	b.n	8001e8a <USB_CoreInit+0x7c>
	...

08001e98 <USB_SetTurnaroundTime>:
 8001e98:	2a02      	cmp	r2, #2
 8001e9a:	d14a      	bne.n	8001f32 <USB_SetTurnaroundTime+0x9a>
 8001e9c:	4b27      	ldr	r3, [pc, #156]	@ (8001f3c <USB_SetTurnaroundTime+0xa4>)
 8001e9e:	4a28      	ldr	r2, [pc, #160]	@ (8001f40 <USB_SetTurnaroundTime+0xa8>)
 8001ea0:	440b      	add	r3, r1
 8001ea2:	4293      	cmp	r3, r2
 8001ea4:	d939      	bls.n	8001f1a <USB_SetTurnaroundTime+0x82>
 8001ea6:	4b27      	ldr	r3, [pc, #156]	@ (8001f44 <USB_SetTurnaroundTime+0xac>)
 8001ea8:	4a27      	ldr	r2, [pc, #156]	@ (8001f48 <USB_SetTurnaroundTime+0xb0>)
 8001eaa:	440b      	add	r3, r1
 8001eac:	4293      	cmp	r3, r2
 8001eae:	d936      	bls.n	8001f1e <USB_SetTurnaroundTime+0x86>
 8001eb0:	4a26      	ldr	r2, [pc, #152]	@ (8001f4c <USB_SetTurnaroundTime+0xb4>)
 8001eb2:	f5a1 0374 	sub.w	r3, r1, #15990784	@ 0xf40000
 8001eb6:	f5a3 5310 	sub.w	r3, r3, #9216	@ 0x2400
 8001eba:	4293      	cmp	r3, r2
 8001ebc:	d931      	bls.n	8001f22 <USB_SetTurnaroundTime+0x8a>
 8001ebe:	4a24      	ldr	r2, [pc, #144]	@ (8001f50 <USB_SetTurnaroundTime+0xb8>)
 8001ec0:	f1a1 7383 	sub.w	r3, r1, #17170432	@ 0x1060000
 8001ec4:	f5a3 43e7 	sub.w	r3, r3, #29568	@ 0x7380
 8001ec8:	4293      	cmp	r3, r2
 8001eca:	d32c      	bcc.n	8001f26 <USB_SetTurnaroundTime+0x8e>
 8001ecc:	4b21      	ldr	r3, [pc, #132]	@ (8001f54 <USB_SetTurnaroundTime+0xbc>)
 8001ece:	4a22      	ldr	r2, [pc, #136]	@ (8001f58 <USB_SetTurnaroundTime+0xc0>)
 8001ed0:	440b      	add	r3, r1
 8001ed2:	4293      	cmp	r3, r2
 8001ed4:	d929      	bls.n	8001f2a <USB_SetTurnaroundTime+0x92>
 8001ed6:	4b21      	ldr	r3, [pc, #132]	@ (8001f5c <USB_SetTurnaroundTime+0xc4>)
 8001ed8:	4a21      	ldr	r2, [pc, #132]	@ (8001f60 <USB_SetTurnaroundTime+0xc8>)
 8001eda:	440b      	add	r3, r1
 8001edc:	4293      	cmp	r3, r2
 8001ede:	d326      	bcc.n	8001f2e <USB_SetTurnaroundTime+0x96>
 8001ee0:	4b20      	ldr	r3, [pc, #128]	@ (8001f64 <USB_SetTurnaroundTime+0xcc>)
 8001ee2:	4a21      	ldr	r2, [pc, #132]	@ (8001f68 <USB_SetTurnaroundTime+0xd0>)
 8001ee4:	440b      	add	r3, r1
 8001ee6:	4293      	cmp	r3, r2
 8001ee8:	d323      	bcc.n	8001f32 <USB_SetTurnaroundTime+0x9a>
 8001eea:	4a20      	ldr	r2, [pc, #128]	@ (8001f6c <USB_SetTurnaroundTime+0xd4>)
 8001eec:	f1a1 73b7 	sub.w	r3, r1, #23986176	@ 0x16e0000
 8001ef0:	f5a3 5358 	sub.w	r3, r3, #13824	@ 0x3600
 8001ef4:	4293      	cmp	r3, r2
 8001ef6:	d31e      	bcc.n	8001f36 <USB_SetTurnaroundTime+0x9e>
 8001ef8:	4b1d      	ldr	r3, [pc, #116]	@ (8001f70 <USB_SetTurnaroundTime+0xd8>)
 8001efa:	4a1e      	ldr	r2, [pc, #120]	@ (8001f74 <USB_SetTurnaroundTime+0xdc>)
 8001efc:	440b      	add	r3, r1
 8001efe:	4293      	cmp	r3, r2
 8001f00:	bf2c      	ite	cs
 8001f02:	2306      	movcs	r3, #6
 8001f04:	2307      	movcc	r3, #7
 8001f06:	68c2      	ldr	r2, [r0, #12]
 8001f08:	f422 5270 	bic.w	r2, r2, #15360	@ 0x3c00
 8001f0c:	60c2      	str	r2, [r0, #12]
 8001f0e:	68c2      	ldr	r2, [r0, #12]
 8001f10:	ea42 2383 	orr.w	r3, r2, r3, lsl #10
 8001f14:	60c3      	str	r3, [r0, #12]
 8001f16:	2000      	movs	r0, #0
 8001f18:	4770      	bx	lr
 8001f1a:	230f      	movs	r3, #15
 8001f1c:	e7f3      	b.n	8001f06 <USB_SetTurnaroundTime+0x6e>
 8001f1e:	230e      	movs	r3, #14
 8001f20:	e7f1      	b.n	8001f06 <USB_SetTurnaroundTime+0x6e>
 8001f22:	230d      	movs	r3, #13
 8001f24:	e7ef      	b.n	8001f06 <USB_SetTurnaroundTime+0x6e>
 8001f26:	230c      	movs	r3, #12
 8001f28:	e7ed      	b.n	8001f06 <USB_SetTurnaroundTime+0x6e>
 8001f2a:	230b      	movs	r3, #11
 8001f2c:	e7eb      	b.n	8001f06 <USB_SetTurnaroundTime+0x6e>
 8001f2e:	230a      	movs	r3, #10
 8001f30:	e7e9      	b.n	8001f06 <USB_SetTurnaroundTime+0x6e>
 8001f32:	2309      	movs	r3, #9
 8001f34:	e7e7      	b.n	8001f06 <USB_SetTurnaroundTime+0x6e>
 8001f36:	2308      	movs	r3, #8
 8001f38:	e7e5      	b.n	8001f06 <USB_SetTurnaroundTime+0x6e>
 8001f3a:	bf00      	nop
 8001f3c:	ff275340 	.word	0xff275340
 8001f40:	000c34ff 	.word	0x000c34ff
 8001f44:	ff1b1e40 	.word	0xff1b1e40
 8001f48:	000f423f 	.word	0x000f423f
 8001f4c:	00124f7f 	.word	0x00124f7f
 8001f50:	0013d620 	.word	0x0013d620
 8001f54:	fee5b660 	.word	0xfee5b660
 8001f58:	0016e35f 	.word	0x0016e35f
 8001f5c:	feced300 	.word	0xfeced300
 8001f60:	001b7740 	.word	0x001b7740
 8001f64:	feb35bc0 	.word	0xfeb35bc0
 8001f68:	002191c0 	.word	0x002191c0
 8001f6c:	00387520 	.word	0x00387520
 8001f70:	fe5954e0 	.word	0xfe5954e0
 8001f74:	00419ce0 	.word	0x00419ce0

08001f78 <USB_EnableGlobalInt>:
 8001f78:	6883      	ldr	r3, [r0, #8]
 8001f7a:	f043 0301 	orr.w	r3, r3, #1
 8001f7e:	6083      	str	r3, [r0, #8]
 8001f80:	2000      	movs	r0, #0
 8001f82:	4770      	bx	lr

08001f84 <USB_DisableGlobalInt>:
 8001f84:	6883      	ldr	r3, [r0, #8]
 8001f86:	f023 0301 	bic.w	r3, r3, #1
 8001f8a:	6083      	str	r3, [r0, #8]
 8001f8c:	2000      	movs	r0, #0
 8001f8e:	4770      	bx	lr

08001f90 <USB_SetCurrentMode>:
 8001f90:	b538      	push	{r3, r4, r5, lr}
 8001f92:	68c3      	ldr	r3, [r0, #12]
 8001f94:	2901      	cmp	r1, #1
 8001f96:	f023 43c0 	bic.w	r3, r3, #1610612736	@ 0x60000000
 8001f9a:	4605      	mov	r5, r0
 8001f9c:	460c      	mov	r4, r1
 8001f9e:	60c3      	str	r3, [r0, #12]
 8001fa0:	d114      	bne.n	8001fcc <USB_SetCurrentMode+0x3c>
 8001fa2:	68c3      	ldr	r3, [r0, #12]
 8001fa4:	f043 5300 	orr.w	r3, r3, #536870912	@ 0x20000000
 8001fa8:	60c3      	str	r3, [r0, #12]
 8001faa:	2400      	movs	r4, #0
 8001fac:	200a      	movs	r0, #10
 8001fae:	f7fe fcaf 	bl	8000910 <HAL_Delay>
 8001fb2:	696b      	ldr	r3, [r5, #20]
 8001fb4:	07d9      	lsls	r1, r3, #31
 8001fb6:	f104 040a 	add.w	r4, r4, #10
 8001fba:	d402      	bmi.n	8001fc2 <USB_SetCurrentMode+0x32>
 8001fbc:	2cc8      	cmp	r4, #200	@ 0xc8
 8001fbe:	d1f5      	bne.n	8001fac <USB_SetCurrentMode+0x1c>
 8001fc0:	24c8      	movs	r4, #200	@ 0xc8
 8001fc2:	f1a4 03c8 	sub.w	r3, r4, #200	@ 0xc8
 8001fc6:	4258      	negs	r0, r3
 8001fc8:	4158      	adcs	r0, r3
 8001fca:	bd38      	pop	{r3, r4, r5, pc}
 8001fcc:	b971      	cbnz	r1, 8001fec <USB_SetCurrentMode+0x5c>
 8001fce:	68c3      	ldr	r3, [r0, #12]
 8001fd0:	f043 4380 	orr.w	r3, r3, #1073741824	@ 0x40000000
 8001fd4:	60c3      	str	r3, [r0, #12]
 8001fd6:	200a      	movs	r0, #10
 8001fd8:	f7fe fc9a 	bl	8000910 <HAL_Delay>
 8001fdc:	696b      	ldr	r3, [r5, #20]
 8001fde:	07da      	lsls	r2, r3, #31
 8001fe0:	f104 040a 	add.w	r4, r4, #10
 8001fe4:	d5ed      	bpl.n	8001fc2 <USB_SetCurrentMode+0x32>
 8001fe6:	2cc8      	cmp	r4, #200	@ 0xc8
 8001fe8:	d1f5      	bne.n	8001fd6 <USB_SetCurrentMode+0x46>
 8001fea:	e7e9      	b.n	8001fc0 <USB_SetCurrentMode+0x30>
 8001fec:	2001      	movs	r0, #1
 8001fee:	e7ec      	b.n	8001fca <USB_SetCurrentMode+0x3a>

08001ff0 <USB_FlushTxFifo>:
 8001ff0:	b082      	sub	sp, #8
 8001ff2:	2300      	movs	r3, #0
 8001ff4:	4602      	mov	r2, r0
 8001ff6:	9301      	str	r3, [sp, #4]
 8001ff8:	9b01      	ldr	r3, [sp, #4]
 8001ffa:	3301      	adds	r3, #1
 8001ffc:	9301      	str	r3, [sp, #4]
 8001ffe:	9b01      	ldr	r3, [sp, #4]
 8002000:	f1b3 6f70 	cmp.w	r3, #251658240	@ 0xf000000
 8002004:	d815      	bhi.n	8002032 <USB_FlushTxFifo+0x42>
 8002006:	6913      	ldr	r3, [r2, #16]
 8002008:	2b00      	cmp	r3, #0
 800200a:	daf5      	bge.n	8001ff8 <USB_FlushTxFifo+0x8>
 800200c:	0189      	lsls	r1, r1, #6
 800200e:	2300      	movs	r3, #0
 8002010:	f041 0120 	orr.w	r1, r1, #32
 8002014:	9301      	str	r3, [sp, #4]
 8002016:	6111      	str	r1, [r2, #16]
 8002018:	9b01      	ldr	r3, [sp, #4]
 800201a:	3301      	adds	r3, #1
 800201c:	9301      	str	r3, [sp, #4]
 800201e:	9b01      	ldr	r3, [sp, #4]
 8002020:	f1b3 6f70 	cmp.w	r3, #251658240	@ 0xf000000
 8002024:	d805      	bhi.n	8002032 <USB_FlushTxFifo+0x42>
 8002026:	6910      	ldr	r0, [r2, #16]
 8002028:	f010 0020 	ands.w	r0, r0, #32
 800202c:	d1f4      	bne.n	8002018 <USB_FlushTxFifo+0x28>
 800202e:	b002      	add	sp, #8
 8002030:	4770      	bx	lr
 8002032:	2003      	movs	r0, #3
 8002034:	e7fb      	b.n	800202e <USB_FlushTxFifo+0x3e>

08002036 <USB_FlushRxFifo>:
 8002036:	b082      	sub	sp, #8
 8002038:	2300      	movs	r3, #0
 800203a:	4602      	mov	r2, r0
 800203c:	9301      	str	r3, [sp, #4]
 800203e:	9b01      	ldr	r3, [sp, #4]
 8002040:	3301      	adds	r3, #1
 8002042:	9301      	str	r3, [sp, #4]
 8002044:	9b01      	ldr	r3, [sp, #4]
 8002046:	f1b3 6f70 	cmp.w	r3, #251658240	@ 0xf000000
 800204a:	d813      	bhi.n	8002074 <USB_FlushRxFifo+0x3e>
 800204c:	6913      	ldr	r3, [r2, #16]
 800204e:	2b00      	cmp	r3, #0
 8002050:	daf5      	bge.n	800203e <USB_FlushRxFifo+0x8>
 8002052:	2300      	movs	r3, #0
 8002054:	9301      	str	r3, [sp, #4]
 8002056:	2310      	movs	r3, #16
 8002058:	6113      	str	r3, [r2, #16]
 800205a:	9b01      	ldr	r3, [sp, #4]
 800205c:	3301      	adds	r3, #1
 800205e:	9301      	str	r3, [sp, #4]
 8002060:	9b01      	ldr	r3, [sp, #4]
 8002062:	f1b3 6f70 	cmp.w	r3, #251658240	@ 0xf000000
 8002066:	d805      	bhi.n	8002074 <USB_FlushRxFifo+0x3e>
 8002068:	6910      	ldr	r0, [r2, #16]
 800206a:	f010 0010 	ands.w	r0, r0, #16
 800206e:	d1f4      	bne.n	800205a <USB_FlushRxFifo+0x24>
 8002070:	b002      	add	sp, #8
 8002072:	4770      	bx	lr
 8002074:	2003      	movs	r0, #3
 8002076:	e7fb      	b.n	8002070 <USB_FlushRxFifo+0x3a>

08002078 <USB_SetDevSpeed>:
 8002078:	f8d0 3800 	ldr.w	r3, [r0, #2048]	@ 0x800
 800207c:	4319      	orrs	r1, r3
 800207e:	f8c0 1800 	str.w	r1, [r0, #2048]	@ 0x800
 8002082:	2000      	movs	r0, #0
 8002084:	4770      	bx	lr
	...

08002088 <USB_DevInit>:
 8002088:	b084      	sub	sp, #16
 800208a:	e92d 43f8 	stmdb	sp!, {r3, r4, r5, r6, r7, r8, r9, lr}
 800208e:	4604      	mov	r4, r0
 8002090:	a809      	add	r0, sp, #36	@ 0x24
 8002092:	e880 000e 	stmia.w	r0, {r1, r2, r3}
 8002096:	2300      	movs	r3, #0
 8002098:	f89d 6024 	ldrb.w	r6, [sp, #36]	@ 0x24
 800209c:	f89d 502e 	ldrb.w	r5, [sp, #46]	@ 0x2e
 80020a0:	4619      	mov	r1, r3
 80020a2:	f103 0240 	add.w	r2, r3, #64	@ 0x40
 80020a6:	eb04 0282 	add.w	r2, r4, r2, lsl #2
 80020aa:	3301      	adds	r3, #1
 80020ac:	2b0f      	cmp	r3, #15
 80020ae:	6051      	str	r1, [r2, #4]
 80020b0:	d1f7      	bne.n	80020a2 <USB_DevInit+0x1a>
 80020b2:	f504 6700 	add.w	r7, r4, #2048	@ 0x800
 80020b6:	2d00      	cmp	r5, #0
 80020b8:	d16c      	bne.n	8002194 <USB_DevInit+0x10c>
 80020ba:	687b      	ldr	r3, [r7, #4]
 80020bc:	f043 0302 	orr.w	r3, r3, #2
 80020c0:	607b      	str	r3, [r7, #4]
 80020c2:	6ba3      	ldr	r3, [r4, #56]	@ 0x38
 80020c4:	f443 1300 	orr.w	r3, r3, #2097152	@ 0x200000
 80020c8:	63a3      	str	r3, [r4, #56]	@ 0x38
 80020ca:	6ba3      	ldr	r3, [r4, #56]	@ 0x38
 80020cc:	f423 2300 	bic.w	r3, r3, #524288	@ 0x80000
 80020d0:	63a3      	str	r3, [r4, #56]	@ 0x38
 80020d2:	6ba3      	ldr	r3, [r4, #56]	@ 0x38
 80020d4:	f423 2380 	bic.w	r3, r3, #262144	@ 0x40000
 80020d8:	63a3      	str	r3, [r4, #56]	@ 0x38
 80020da:	2300      	movs	r3, #0
 80020dc:	f8c4 3e00 	str.w	r3, [r4, #3584]	@ 0xe00
 80020e0:	f89d 3029 	ldrb.w	r3, [sp, #41]	@ 0x29
 80020e4:	2b01      	cmp	r3, #1
 80020e6:	d15f      	bne.n	80021a8 <USB_DevInit+0x120>
 80020e8:	f89d 1027 	ldrb.w	r1, [sp, #39]	@ 0x27
 80020ec:	2900      	cmp	r1, #0
 80020ee:	d159      	bne.n	80021a4 <USB_DevInit+0x11c>
 80020f0:	4620      	mov	r0, r4
 80020f2:	f7ff ffc1 	bl	8002078 <USB_SetDevSpeed>
 80020f6:	2110      	movs	r1, #16
 80020f8:	4620      	mov	r0, r4
 80020fa:	f7ff ff79 	bl	8001ff0 <USB_FlushTxFifo>
 80020fe:	4601      	mov	r1, r0
 8002100:	4620      	mov	r0, r4
 8002102:	f7ff ff98 	bl	8002036 <USB_FlushRxFifo>
 8002106:	4308      	orrs	r0, r1
 8002108:	b2c0      	uxtb	r0, r0
 800210a:	2300      	movs	r3, #0
 800210c:	3800      	subs	r0, #0
 800210e:	613b      	str	r3, [r7, #16]
 8002110:	bf18      	it	ne
 8002112:	2001      	movne	r0, #1
 8002114:	617b      	str	r3, [r7, #20]
 8002116:	f504 6210 	add.w	r2, r4, #2304	@ 0x900
 800211a:	61fb      	str	r3, [r7, #28]
 800211c:	4619      	mov	r1, r3
 800211e:	f04f 4c90 	mov.w	ip, #1207959552	@ 0x48000000
 8002122:	f04f 6e00 	mov.w	lr, #134217728	@ 0x8000000
 8002126:	f64f 387f 	movw	r8, #64383	@ 0xfb7f
 800212a:	429e      	cmp	r6, r3
 800212c:	d83e      	bhi.n	80021ac <USB_DevInit+0x124>
 800212e:	2200      	movs	r2, #0
 8002130:	f504 6330 	add.w	r3, r4, #2816	@ 0xb00
 8002134:	4611      	mov	r1, r2
 8002136:	f04f 4c90 	mov.w	ip, #1207959552	@ 0x48000000
 800213a:	f04f 6e00 	mov.w	lr, #134217728	@ 0x8000000
 800213e:	f64f 387f 	movw	r8, #64383	@ 0xfb7f
 8002142:	4296      	cmp	r6, r2
 8002144:	d845      	bhi.n	80021d2 <USB_DevInit+0x14a>
 8002146:	693b      	ldr	r3, [r7, #16]
 8002148:	f423 7380 	bic.w	r3, r3, #256	@ 0x100
 800214c:	613b      	str	r3, [r7, #16]
 800214e:	2300      	movs	r3, #0
 8002150:	61a3      	str	r3, [r4, #24]
 8002152:	f06f 4380 	mvn.w	r3, #1073741824	@ 0x40000000
 8002156:	6163      	str	r3, [r4, #20]
 8002158:	f89d 3026 	ldrb.w	r3, [sp, #38]	@ 0x26
 800215c:	b91b      	cbnz	r3, 8002166 <USB_DevInit+0xde>
 800215e:	69a3      	ldr	r3, [r4, #24]
 8002160:	f043 0310 	orr.w	r3, r3, #16
 8002164:	61a3      	str	r3, [r4, #24]
 8002166:	69a2      	ldr	r2, [r4, #24]
 8002168:	4b23      	ldr	r3, [pc, #140]	@ (80021f8 <USB_DevInit+0x170>)
 800216a:	4313      	orrs	r3, r2
 800216c:	61a3      	str	r3, [r4, #24]
 800216e:	f89d 302a 	ldrb.w	r3, [sp, #42]	@ 0x2a
 8002172:	b11b      	cbz	r3, 800217c <USB_DevInit+0xf4>
 8002174:	69a3      	ldr	r3, [r4, #24]
 8002176:	f043 0308 	orr.w	r3, r3, #8
 800217a:	61a3      	str	r3, [r4, #24]
 800217c:	2d01      	cmp	r5, #1
 800217e:	bf01      	itttt	eq
 8002180:	69a3      	ldreq	r3, [r4, #24]
 8002182:	f043 4380 	orreq.w	r3, r3, #1073741824	@ 0x40000000
 8002186:	f043 0304 	orreq.w	r3, r3, #4
 800218a:	61a3      	streq	r3, [r4, #24]
 800218c:	e8bd 43f8 	ldmia.w	sp!, {r3, r4, r5, r6, r7, r8, r9, lr}
 8002190:	b004      	add	sp, #16
 8002192:	4770      	bx	lr
 8002194:	6ba3      	ldr	r3, [r4, #56]	@ 0x38
 8002196:	f423 1300 	bic.w	r3, r3, #2097152	@ 0x200000
 800219a:	63a3      	str	r3, [r4, #56]	@ 0x38
 800219c:	6ba3      	ldr	r3, [r4, #56]	@ 0x38
 800219e:	f443 2300 	orr.w	r3, r3, #524288	@ 0x80000
 80021a2:	e799      	b.n	80020d8 <USB_DevInit+0x50>
 80021a4:	4619      	mov	r1, r3
 80021a6:	e7a3      	b.n	80020f0 <USB_DevInit+0x68>
 80021a8:	2103      	movs	r1, #3
 80021aa:	e7a1      	b.n	80020f0 <USB_DevInit+0x68>
 80021ac:	f8d2 9000 	ldr.w	r9, [r2]
 80021b0:	f1b9 0f00 	cmp.w	r9, #0
 80021b4:	da0b      	bge.n	80021ce <USB_DevInit+0x146>
 80021b6:	b93b      	cbnz	r3, 80021c8 <USB_DevInit+0x140>
 80021b8:	f8c2 e000 	str.w	lr, [r2]
 80021bc:	6111      	str	r1, [r2, #16]
 80021be:	3301      	adds	r3, #1
 80021c0:	f8c2 8008 	str.w	r8, [r2, #8]
 80021c4:	3220      	adds	r2, #32
 80021c6:	e7b0      	b.n	800212a <USB_DevInit+0xa2>
 80021c8:	f8c2 c000 	str.w	ip, [r2]
 80021cc:	e7f6      	b.n	80021bc <USB_DevInit+0x134>
 80021ce:	6011      	str	r1, [r2, #0]
 80021d0:	e7f4      	b.n	80021bc <USB_DevInit+0x134>
 80021d2:	f8d3 9000 	ldr.w	r9, [r3]
 80021d6:	f1b9 0f00 	cmp.w	r9, #0
 80021da:	da0b      	bge.n	80021f4 <USB_DevInit+0x16c>
 80021dc:	b93a      	cbnz	r2, 80021ee <USB_DevInit+0x166>
 80021de:	f8c3 e000 	str.w	lr, [r3]
 80021e2:	6119      	str	r1, [r3, #16]
 80021e4:	3201      	adds	r2, #1
 80021e6:	f8c3 8008 	str.w	r8, [r3, #8]
 80021ea:	3320      	adds	r3, #32
 80021ec:	e7a9      	b.n	8002142 <USB_DevInit+0xba>
 80021ee:	f8c3 c000 	str.w	ip, [r3]
 80021f2:	e7f6      	b.n	80021e2 <USB_DevInit+0x15a>
 80021f4:	6019      	str	r1, [r3, #0]
 80021f6:	e7f4      	b.n	80021e2 <USB_DevInit+0x15a>
 80021f8:	803c3800 	.word	0x803c3800

080021fc <USB_GetDevSpeed>:
 80021fc:	f8d0 3808 	ldr.w	r3, [r0, #2056]	@ 0x808
 8002200:	f013 0006 	ands.w	r0, r3, #6
 8002204:	d004      	beq.n	8002210 <USB_GetDevSpeed+0x14>
 8002206:	f013 0f02 	tst.w	r3, #2
 800220a:	bf14      	ite	ne
 800220c:	2002      	movne	r0, #2
 800220e:	200f      	moveq	r0, #15
 8002210:	4770      	bx	lr

08002212 <USB_ActivateEndpoint>:
 8002212:	b530      	push	{r4, r5, lr}
 8002214:	780c      	ldrb	r4, [r1, #0]
 8002216:	2201      	movs	r2, #1
 8002218:	f004 050f 	and.w	r5, r4, #15
 800221c:	40aa      	lsls	r2, r5
 800221e:	784d      	ldrb	r5, [r1, #1]
 8002220:	2d01      	cmp	r5, #1
 8002222:	f500 6300 	add.w	r3, r0, #2048	@ 0x800
 8002226:	eb00 1044 	add.w	r0, r0, r4, lsl #5
 800222a:	d119      	bne.n	8002260 <USB_ActivateEndpoint+0x4e>
 800222c:	69dd      	ldr	r5, [r3, #28]
 800222e:	432a      	orrs	r2, r5
 8002230:	61da      	str	r2, [r3, #28]
 8002232:	f8d0 3900 	ldr.w	r3, [r0, #2304]	@ 0x900
 8002236:	041a      	lsls	r2, r3, #16
 8002238:	d410      	bmi.n	800225c <USB_ActivateEndpoint+0x4a>
 800223a:	688a      	ldr	r2, [r1, #8]
 800223c:	f8d0 5900 	ldr.w	r5, [r0, #2304]	@ 0x900
 8002240:	f3c2 030a 	ubfx	r3, r2, #0, #11
 8002244:	790a      	ldrb	r2, [r1, #4]
 8002246:	432b      	orrs	r3, r5
 8002248:	ea43 4382 	orr.w	r3, r3, r2, lsl #18
 800224c:	ea43 5384 	orr.w	r3, r3, r4, lsl #22
 8002250:	f043 5380 	orr.w	r3, r3, #268435456	@ 0x10000000
 8002254:	f443 4300 	orr.w	r3, r3, #32768	@ 0x8000
 8002258:	f8c0 3900 	str.w	r3, [r0, #2304]	@ 0x900
 800225c:	2000      	movs	r0, #0
 800225e:	bd30      	pop	{r4, r5, pc}
 8002260:	69dc      	ldr	r4, [r3, #28]
 8002262:	ea44 4202 	orr.w	r2, r4, r2, lsl #16
 8002266:	61da      	str	r2, [r3, #28]
 8002268:	f8d0 3b00 	ldr.w	r3, [r0, #2816]	@ 0xb00
 800226c:	041b      	lsls	r3, r3, #16
 800226e:	d4f5      	bmi.n	800225c <USB_ActivateEndpoint+0x4a>
 8002270:	688b      	ldr	r3, [r1, #8]
 8002272:	f8d0 2b00 	ldr.w	r2, [r0, #2816]	@ 0xb00
 8002276:	f3c3 030a 	ubfx	r3, r3, #0, #11
 800227a:	4313      	orrs	r3, r2
 800227c:	790a      	ldrb	r2, [r1, #4]
 800227e:	ea43 4382 	orr.w	r3, r3, r2, lsl #18
 8002282:	f043 5380 	orr.w	r3, r3, #268435456	@ 0x10000000
 8002286:	f443 4300 	orr.w	r3, r3, #32768	@ 0x8000
 800228a:	f8c0 3b00 	str.w	r3, [r0, #2816]	@ 0xb00
 800228e:	e7e5      	b.n	800225c <USB_ActivateEndpoint+0x4a>

08002290 <USB_DeactivateEndpoint>:
 8002290:	b510      	push	{r4, lr}
 8002292:	780a      	ldrb	r2, [r1, #0]
 8002294:	7849      	ldrb	r1, [r1, #1]
 8002296:	2901      	cmp	r1, #1
 8002298:	eb00 1342 	add.w	r3, r0, r2, lsl #5
 800229c:	f500 6000 	add.w	r0, r0, #2048	@ 0x800
 80022a0:	f002 020f 	and.w	r2, r2, #15
 80022a4:	d122      	bne.n	80022ec <USB_DeactivateEndpoint+0x5c>
 80022a6:	f8d3 1900 	ldr.w	r1, [r3, #2304]	@ 0x900
 80022aa:	2900      	cmp	r1, #0
 80022ac:	da0b      	bge.n	80022c6 <USB_DeactivateEndpoint+0x36>
 80022ae:	f8d3 1900 	ldr.w	r1, [r3, #2304]	@ 0x900
 80022b2:	f041 6100 	orr.w	r1, r1, #134217728	@ 0x8000000
 80022b6:	f8c3 1900 	str.w	r1, [r3, #2304]	@ 0x900
 80022ba:	f8d3 1900 	ldr.w	r1, [r3, #2304]	@ 0x900
 80022be:	f041 4180 	orr.w	r1, r1, #1073741824	@ 0x40000000
 80022c2:	f8c3 1900 	str.w	r1, [r3, #2304]	@ 0x900
 80022c6:	6bc4      	ldr	r4, [r0, #60]	@ 0x3c
 80022c8:	2101      	movs	r1, #1
 80022ca:	fa01 f202 	lsl.w	r2, r1, r2
 80022ce:	ea24 0402 	bic.w	r4, r4, r2
 80022d2:	63c4      	str	r4, [r0, #60]	@ 0x3c
 80022d4:	69c1      	ldr	r1, [r0, #28]
 80022d6:	ea21 0202 	bic.w	r2, r1, r2
 80022da:	61c2      	str	r2, [r0, #28]
 80022dc:	f8d3 1900 	ldr.w	r1, [r3, #2304]	@ 0x900
 80022e0:	4a14      	ldr	r2, [pc, #80]	@ (8002334 <USB_DeactivateEndpoint+0xa4>)
 80022e2:	400a      	ands	r2, r1
 80022e4:	f8c3 2900 	str.w	r2, [r3, #2304]	@ 0x900
 80022e8:	2000      	movs	r0, #0
 80022ea:	bd10      	pop	{r4, pc}
 80022ec:	f8d3 1b00 	ldr.w	r1, [r3, #2816]	@ 0xb00
 80022f0:	2900      	cmp	r1, #0
 80022f2:	da0b      	bge.n	800230c <USB_DeactivateEndpoint+0x7c>
 80022f4:	f8d3 1b00 	ldr.w	r1, [r3, #2816]	@ 0xb00
 80022f8:	f041 6100 	orr.w	r1, r1, #134217728	@ 0x8000000
 80022fc:	f8c3 1b00 	str.w	r1, [r3, #2816]	@ 0xb00
 8002300:	f8d3 1b00 	ldr.w	r1, [r3, #2816]	@ 0xb00
 8002304:	f041 4180 	orr.w	r1, r1, #1073741824	@ 0x40000000
 8002308:	f8c3 1b00 	str.w	r1, [r3, #2816]	@ 0xb00
 800230c:	6bc4      	ldr	r4, [r0, #60]	@ 0x3c
 800230e:	f44f 3180 	mov.w	r1, #65536	@ 0x10000
 8002312:	fa01 f202 	lsl.w	r2, r1, r2
 8002316:	ea24 0402 	bic.w	r4, r4, r2
 800231a:	63c4      	str	r4, [r0, #60]	@ 0x3c
 800231c:	69c1      	ldr	r1, [r0, #28]
 800231e:	ea21 0202 	bic.w	r2, r1, r2
 8002322:	61c2      	str	r2, [r0, #28]
 8002324:	f8d3 1b00 	ldr.w	r1, [r3, #2816]	@ 0xb00
 8002328:	4a03      	ldr	r2, [pc, #12]	@ (8002338 <USB_DeactivateEndpoint+0xa8>)
 800232a:	400a      	ands	r2, r1
 800232c:	f8c3 2b00 	str.w	r2, [r3, #2816]	@ 0xb00
 8002330:	e7da      	b.n	80022e8 <USB_DeactivateEndpoint+0x58>
 8002332:	bf00      	nop
 8002334:	ec337800 	.word	0xec337800
 8002338:	eff37800 	.word	0xeff37800

0800233c <USB_EPStopXfer>:
 800233c:	b082      	sub	sp, #8
 800233e:	2300      	movs	r3, #0
 8002340:	784a      	ldrb	r2, [r1, #1]
 8002342:	9301      	str	r3, [sp, #4]
 8002344:	780b      	ldrb	r3, [r1, #0]
 8002346:	2a01      	cmp	r2, #1
 8002348:	ea4f 1343 	mov.w	r3, r3, lsl #5
 800234c:	d11e      	bne.n	800238c <USB_EPStopXfer+0x50>
 800234e:	f500 6010 	add.w	r0, r0, #2304	@ 0x900
 8002352:	18c1      	adds	r1, r0, r3
 8002354:	58c2      	ldr	r2, [r0, r3]
 8002356:	2a00      	cmp	r2, #0
 8002358:	db02      	blt.n	8002360 <USB_EPStopXfer+0x24>
 800235a:	2000      	movs	r0, #0
 800235c:	b002      	add	sp, #8
 800235e:	4770      	bx	lr
 8002360:	58c2      	ldr	r2, [r0, r3]
 8002362:	f042 6200 	orr.w	r2, r2, #134217728	@ 0x8000000
 8002366:	50c2      	str	r2, [r0, r3]
 8002368:	58c2      	ldr	r2, [r0, r3]
 800236a:	f042 4280 	orr.w	r2, r2, #1073741824	@ 0x40000000
 800236e:	50c2      	str	r2, [r0, r3]
 8002370:	f242 7210 	movw	r2, #10000	@ 0x2710
 8002374:	9b01      	ldr	r3, [sp, #4]
 8002376:	3301      	adds	r3, #1
 8002378:	9301      	str	r3, [sp, #4]
 800237a:	9b01      	ldr	r3, [sp, #4]
 800237c:	4293      	cmp	r3, r2
 800237e:	d901      	bls.n	8002384 <USB_EPStopXfer+0x48>
 8002380:	2001      	movs	r0, #1
 8002382:	e7eb      	b.n	800235c <USB_EPStopXfer+0x20>
 8002384:	680b      	ldr	r3, [r1, #0]
 8002386:	2b00      	cmp	r3, #0
 8002388:	dbf4      	blt.n	8002374 <USB_EPStopXfer+0x38>
 800238a:	e7e6      	b.n	800235a <USB_EPStopXfer+0x1e>
 800238c:	f500 6030 	add.w	r0, r0, #2816	@ 0xb00
 8002390:	18c1      	adds	r1, r0, r3
 8002392:	58c2      	ldr	r2, [r0, r3]
 8002394:	2a00      	cmp	r2, #0
 8002396:	dae0      	bge.n	800235a <USB_EPStopXfer+0x1e>
 8002398:	58c2      	ldr	r2, [r0, r3]
 800239a:	f042 6200 	orr.w	r2, r2, #134217728	@ 0x8000000
 800239e:	50c2      	str	r2, [r0, r3]
 80023a0:	58c2      	ldr	r2, [r0, r3]
 80023a2:	f042 4280 	orr.w	r2, r2, #1073741824	@ 0x40000000
 80023a6:	50c2      	str	r2, [r0, r3]
 80023a8:	f242 7210 	movw	r2, #10000	@ 0x2710
 80023ac:	9b01      	ldr	r3, [sp, #4]
 80023ae:	3301      	adds	r3, #1
 80023b0:	9301      	str	r3, [sp, #4]
 80023b2:	9b01      	ldr	r3, [sp, #4]
 80023b4:	4293      	cmp	r3, r2
 80023b6:	d8e3      	bhi.n	8002380 <USB_EPStopXfer+0x44>
 80023b8:	680b      	ldr	r3, [r1, #0]
 80023ba:	2b00      	cmp	r3, #0
 80023bc:	dbf6      	blt.n	80023ac <USB_EPStopXfer+0x70>
 80023be:	e7cc      	b.n	800235a <USB_EPStopXfer+0x1e>

080023c0 <USB_WritePacket>:
 80023c0:	b510      	push	{r4, lr}
 80023c2:	f89d 4008 	ldrb.w	r4, [sp, #8]
 80023c6:	b944      	cbnz	r4, 80023da <USB_WritePacket+0x1a>
 80023c8:	3303      	adds	r3, #3
 80023ca:	3201      	adds	r2, #1
 80023cc:	089b      	lsrs	r3, r3, #2
 80023ce:	eb00 3002 	add.w	r0, r0, r2, lsl #12
 80023d2:	eb01 0383 	add.w	r3, r1, r3, lsl #2
 80023d6:	428b      	cmp	r3, r1
 80023d8:	d101      	bne.n	80023de <USB_WritePacket+0x1e>
 80023da:	2000      	movs	r0, #0
 80023dc:	bd10      	pop	{r4, pc}
 80023de:	f851 2b04 	ldr.w	r2, [r1], #4
 80023e2:	6002      	str	r2, [r0, #0]
 80023e4:	e7f7      	b.n	80023d6 <USB_WritePacket+0x16>
	...

080023e8 <USB_EPStartXfer>:
 80023e8:	e92d 41f3 	stmdb	sp!, {r0, r1, r4, r5, r6, r7, r8, lr}
 80023ec:	784b      	ldrb	r3, [r1, #1]
 80023ee:	690c      	ldr	r4, [r1, #16]
 80023f0:	790f      	ldrb	r7, [r1, #4]
 80023f2:	f8df e1f0 	ldr.w	lr, [pc, #496]	@ 80025e4 <USB_EPStartXfer+0x1fc>
 80023f6:	f8df 81f0 	ldr.w	r8, [pc, #496]	@ 80025e8 <USB_EPStartXfer+0x200>
 80023fa:	4616      	mov	r6, r2
 80023fc:	780a      	ldrb	r2, [r1, #0]
 80023fe:	2b01      	cmp	r3, #1
 8002400:	eb00 1542 	add.w	r5, r0, r2, lsl #5
 8002404:	f040 8097 	bne.w	8002536 <USB_EPStartXfer+0x14e>
 8002408:	f505 6c10 	add.w	ip, r5, #2304	@ 0x900
 800240c:	f8dc 3010 	ldr.w	r3, [ip, #16]
 8002410:	bb74      	cbnz	r4, 8002470 <USB_EPStartXfer+0x88>
 8002412:	ea03 030e 	and.w	r3, r3, lr
 8002416:	f8cc 3010 	str.w	r3, [ip, #16]
 800241a:	f8dc 3010 	ldr.w	r3, [ip, #16]
 800241e:	f443 2300 	orr.w	r3, r3, #524288	@ 0x80000
 8002422:	f8cc 3010 	str.w	r3, [ip, #16]
 8002426:	f8dc 3010 	ldr.w	r3, [ip, #16]
 800242a:	ea03 0308 	and.w	r3, r3, r8
 800242e:	2e01      	cmp	r6, #1
 8002430:	f8cc 3010 	str.w	r3, [ip, #16]
 8002434:	d157      	bne.n	80024e6 <USB_EPStartXfer+0xfe>
 8002436:	69cb      	ldr	r3, [r1, #28]
 8002438:	b10b      	cbz	r3, 800243e <USB_EPStartXfer+0x56>
 800243a:	f8cc 3014 	str.w	r3, [ip, #20]
 800243e:	2f01      	cmp	r7, #1
 8002440:	d10c      	bne.n	800245c <USB_EPStartXfer+0x74>
 8002442:	f8d0 3808 	ldr.w	r3, [r0, #2056]	@ 0x808
 8002446:	f413 7f80 	tst.w	r3, #256	@ 0x100
 800244a:	f8d5 3900 	ldr.w	r3, [r5, #2304]	@ 0x900
 800244e:	bf0c      	ite	eq
 8002450:	f043 5300 	orreq.w	r3, r3, #536870912	@ 0x20000000
 8002454:	f043 5380 	orrne.w	r3, r3, #268435456	@ 0x10000000
 8002458:	f8c5 3900 	str.w	r3, [r5, #2304]	@ 0x900
 800245c:	f8d5 3900 	ldr.w	r3, [r5, #2304]	@ 0x900
 8002460:	f043 4304 	orr.w	r3, r3, #2214592512	@ 0x84000000
 8002464:	f8c5 3900 	str.w	r3, [r5, #2304]	@ 0x900
 8002468:	2000      	movs	r0, #0
 800246a:	b002      	add	sp, #8
 800246c:	e8bd 81f0 	ldmia.w	sp!, {r4, r5, r6, r7, r8, pc}
 8002470:	ea03 0308 	and.w	r3, r3, r8
 8002474:	f8cc 3010 	str.w	r3, [ip, #16]
 8002478:	f8dc 3010 	ldr.w	r3, [ip, #16]
 800247c:	ea03 030e 	and.w	r3, r3, lr
 8002480:	f8cc 3010 	str.w	r3, [ip, #16]
 8002484:	688b      	ldr	r3, [r1, #8]
 8002486:	b97a      	cbnz	r2, 80024a8 <USB_EPStartXfer+0xc0>
 8002488:	429c      	cmp	r4, r3
 800248a:	bf88      	it	hi
 800248c:	610b      	strhi	r3, [r1, #16]
 800248e:	f8dc 3010 	ldr.w	r3, [ip, #16]
 8002492:	f443 2300 	orr.w	r3, r3, #524288	@ 0x80000
 8002496:	f8cc 3010 	str.w	r3, [ip, #16]
 800249a:	690b      	ldr	r3, [r1, #16]
 800249c:	f8dc 4010 	ldr.w	r4, [ip, #16]
 80024a0:	f3c3 0312 	ubfx	r3, r3, #0, #19
 80024a4:	4323      	orrs	r3, r4
 80024a6:	e7c2      	b.n	800242e <USB_EPStartXfer+0x46>
 80024a8:	441c      	add	r4, r3
 80024aa:	3c01      	subs	r4, #1
 80024ac:	fbb4 f4f3 	udiv	r4, r4, r3
 80024b0:	4b4b      	ldr	r3, [pc, #300]	@ (80025e0 <USB_EPStartXfer+0x1f8>)
 80024b2:	f8dc e010 	ldr.w	lr, [ip, #16]
 80024b6:	fa1f f884 	uxth.w	r8, r4
 80024ba:	ea03 44c4 	and.w	r4, r3, r4, lsl #19
 80024be:	ea44 040e 	orr.w	r4, r4, lr
 80024c2:	2f01      	cmp	r7, #1
 80024c4:	f8cc 4010 	str.w	r4, [ip, #16]
 80024c8:	d1e7      	bne.n	800249a <USB_EPStartXfer+0xb2>
 80024ca:	f8dc 3010 	ldr.w	r3, [ip, #16]
 80024ce:	f023 43c0 	bic.w	r3, r3, #1610612736	@ 0x60000000
 80024d2:	f8cc 3010 	str.w	r3, [ip, #16]
 80024d6:	f8dc 4010 	ldr.w	r4, [ip, #16]
 80024da:	ea4f 7348 	mov.w	r3, r8, lsl #29
 80024de:	f003 43c0 	and.w	r3, r3, #1610612736	@ 0x60000000
 80024e2:	4323      	orrs	r3, r4
 80024e4:	e7d7      	b.n	8002496 <USB_EPStartXfer+0xae>
 80024e6:	f8d5 3900 	ldr.w	r3, [r5, #2304]	@ 0x900
 80024ea:	2f01      	cmp	r7, #1
 80024ec:	f043 4304 	orr.w	r3, r3, #2214592512	@ 0x84000000
 80024f0:	f8c5 3900 	str.w	r3, [r5, #2304]	@ 0x900
 80024f4:	690b      	ldr	r3, [r1, #16]
 80024f6:	d00b      	beq.n	8002510 <USB_EPStartXfer+0x128>
 80024f8:	2b00      	cmp	r3, #0
 80024fa:	d0b5      	beq.n	8002468 <USB_EPStartXfer+0x80>
 80024fc:	f8d0 1834 	ldr.w	r1, [r0, #2100]	@ 0x834
 8002500:	f002 020f 	and.w	r2, r2, #15
 8002504:	2301      	movs	r3, #1
 8002506:	4093      	lsls	r3, r2
 8002508:	430b      	orrs	r3, r1
 800250a:	f8c0 3834 	str.w	r3, [r0, #2100]	@ 0x834
 800250e:	e7ab      	b.n	8002468 <USB_EPStartXfer+0x80>
 8002510:	f8d0 4808 	ldr.w	r4, [r0, #2056]	@ 0x808
 8002514:	f414 7f80 	tst.w	r4, #256	@ 0x100
 8002518:	f8d5 4900 	ldr.w	r4, [r5, #2304]	@ 0x900
 800251c:	bf0c      	ite	eq
 800251e:	f044 5400 	orreq.w	r4, r4, #536870912	@ 0x20000000
 8002522:	f044 5480 	orrne.w	r4, r4, #268435456	@ 0x10000000
 8002526:	f8c5 4900 	str.w	r4, [r5, #2304]	@ 0x900
 800252a:	9600      	str	r6, [sp, #0]
 800252c:	68c9      	ldr	r1, [r1, #12]
 800252e:	b29b      	uxth	r3, r3
 8002530:	f7ff ff46 	bl	80023c0 <USB_WritePacket>
 8002534:	e798      	b.n	8002468 <USB_EPStartXfer+0x80>
 8002536:	f8d5 3b10 	ldr.w	r3, [r5, #2832]	@ 0xb10
 800253a:	ea03 0308 	and.w	r3, r3, r8
 800253e:	f8c5 3b10 	str.w	r3, [r5, #2832]	@ 0xb10
 8002542:	f8d5 3b10 	ldr.w	r3, [r5, #2832]	@ 0xb10
 8002546:	ea03 030e 	and.w	r3, r3, lr
 800254a:	f505 6c30 	add.w	ip, r5, #2816	@ 0xb00
 800254e:	f8cc 3010 	str.w	r3, [ip, #16]
 8002552:	688b      	ldr	r3, [r1, #8]
 8002554:	bb5a      	cbnz	r2, 80025ae <USB_EPStartXfer+0x1c6>
 8002556:	b104      	cbz	r4, 800255a <USB_EPStartXfer+0x172>
 8002558:	610b      	str	r3, [r1, #16]
 800255a:	620b      	str	r3, [r1, #32]
 800255c:	f8dc 2010 	ldr.w	r2, [ip, #16]
 8002560:	f3c3 0312 	ubfx	r3, r3, #0, #19
 8002564:	4313      	orrs	r3, r2
 8002566:	f8cc 3010 	str.w	r3, [ip, #16]
 800256a:	f8dc 3010 	ldr.w	r3, [ip, #16]
 800256e:	f443 2300 	orr.w	r3, r3, #524288	@ 0x80000
 8002572:	2e01      	cmp	r6, #1
 8002574:	f8cc 3010 	str.w	r3, [ip, #16]
 8002578:	d103      	bne.n	8002582 <USB_EPStartXfer+0x19a>
 800257a:	68cb      	ldr	r3, [r1, #12]
 800257c:	b10b      	cbz	r3, 8002582 <USB_EPStartXfer+0x19a>
 800257e:	f8cc 3014 	str.w	r3, [ip, #20]
 8002582:	2f01      	cmp	r7, #1
 8002584:	d10c      	bne.n	80025a0 <USB_EPStartXfer+0x1b8>
 8002586:	f8d0 3808 	ldr.w	r3, [r0, #2056]	@ 0x808
 800258a:	f413 7f80 	tst.w	r3, #256	@ 0x100
 800258e:	f8d5 3b00 	ldr.w	r3, [r5, #2816]	@ 0xb00
 8002592:	bf0c      	ite	eq
 8002594:	f043 5300 	orreq.w	r3, r3, #536870912	@ 0x20000000
 8002598:	f043 5380 	orrne.w	r3, r3, #268435456	@ 0x10000000
 800259c:	f8c5 3b00 	str.w	r3, [r5, #2816]	@ 0xb00
 80025a0:	f8d5 3b00 	ldr.w	r3, [r5, #2816]	@ 0xb00
 80025a4:	f043 4304 	orr.w	r3, r3, #2214592512	@ 0x84000000
 80025a8:	f8c5 3b00 	str.w	r3, [r5, #2816]	@ 0xb00
 80025ac:	e75c      	b.n	8002468 <USB_EPStartXfer+0x80>
 80025ae:	2c00      	cmp	r4, #0
 80025b0:	d0d4      	beq.n	800255c <USB_EPStartXfer+0x174>
 80025b2:	441c      	add	r4, r3
 80025b4:	4a0a      	ldr	r2, [pc, #40]	@ (80025e0 <USB_EPStartXfer+0x1f8>)
 80025b6:	f8dc e010 	ldr.w	lr, [ip, #16]
 80025ba:	3c01      	subs	r4, #1
 80025bc:	fbb4 f4f3 	udiv	r4, r4, r3
 80025c0:	b2a4      	uxth	r4, r4
 80025c2:	ea02 42c4 	and.w	r2, r2, r4, lsl #19
 80025c6:	4363      	muls	r3, r4
 80025c8:	ea42 020e 	orr.w	r2, r2, lr
 80025cc:	620b      	str	r3, [r1, #32]
 80025ce:	f8cc 2010 	str.w	r2, [ip, #16]
 80025d2:	f8dc 2010 	ldr.w	r2, [ip, #16]
 80025d6:	f3c3 0312 	ubfx	r3, r3, #0, #19
 80025da:	4313      	orrs	r3, r2
 80025dc:	e7c9      	b.n	8002572 <USB_EPStartXfer+0x18a>
 80025de:	bf00      	nop
 80025e0:	1ff80000 	.word	0x1ff80000
 80025e4:	e007ffff 	.word	0xe007ffff
 80025e8:	fff80000 	.word	0xfff80000

080025ec <USB_ReadPacket>:
 80025ec:	4603      	mov	r3, r0
 80025ee:	b570      	push	{r4, r5, r6, lr}
 80025f0:	2000      	movs	r0, #0
 80025f2:	0894      	lsrs	r4, r2, #2
 80025f4:	f503 5580 	add.w	r5, r3, #4096	@ 0x1000
 80025f8:	f002 0203 	and.w	r2, r2, #3
 80025fc:	42a0      	cmp	r0, r4
 80025fe:	d310      	bcc.n	8002622 <USB_ReadPacket+0x36>
 8002600:	eb01 0084 	add.w	r0, r1, r4, lsl #2
 8002604:	b162      	cbz	r2, 8002620 <USB_ReadPacket+0x34>
 8002606:	f503 5380 	add.w	r3, r3, #4096	@ 0x1000
 800260a:	681c      	ldr	r4, [r3, #0]
 800260c:	2300      	movs	r3, #0
 800260e:	00d9      	lsls	r1, r3, #3
 8002610:	fa24 f101 	lsr.w	r1, r4, r1
 8002614:	54c1      	strb	r1, [r0, r3]
 8002616:	3301      	adds	r3, #1
 8002618:	b299      	uxth	r1, r3
 800261a:	428a      	cmp	r2, r1
 800261c:	d1f7      	bne.n	800260e <USB_ReadPacket+0x22>
 800261e:	4410      	add	r0, r2
 8002620:	bd70      	pop	{r4, r5, r6, pc}
 8002622:	682e      	ldr	r6, [r5, #0]
 8002624:	f841 6020 	str.w	r6, [r1, r0, lsl #2]
 8002628:	3001      	adds	r0, #1
 800262a:	e7e7      	b.n	80025fc <USB_ReadPacket+0x10>

0800262c <USB_EPSetStall>:
 800262c:	784a      	ldrb	r2, [r1, #1]
 800262e:	780b      	ldrb	r3, [r1, #0]
 8002630:	2a01      	cmp	r2, #1
 8002632:	eb00 1043 	add.w	r0, r0, r3, lsl #5
 8002636:	d112      	bne.n	800265e <USB_EPSetStall+0x32>
 8002638:	f8d0 2900 	ldr.w	r2, [r0, #2304]	@ 0x900
 800263c:	2a00      	cmp	r2, #0
 800263e:	db06      	blt.n	800264e <USB_EPSetStall+0x22>
 8002640:	b12b      	cbz	r3, 800264e <USB_EPSetStall+0x22>
 8002642:	f8d0 3900 	ldr.w	r3, [r0, #2304]	@ 0x900
 8002646:	f023 4380 	bic.w	r3, r3, #1073741824	@ 0x40000000
 800264a:	f8c0 3900 	str.w	r3, [r0, #2304]	@ 0x900
 800264e:	f8d0 3900 	ldr.w	r3, [r0, #2304]	@ 0x900
 8002652:	f443 1300 	orr.w	r3, r3, #2097152	@ 0x200000
 8002656:	f8c0 3900 	str.w	r3, [r0, #2304]	@ 0x900
 800265a:	2000      	movs	r0, #0
 800265c:	4770      	bx	lr
 800265e:	f8d0 2b00 	ldr.w	r2, [r0, #2816]	@ 0xb00
 8002662:	2a00      	cmp	r2, #0
 8002664:	db06      	blt.n	8002674 <USB_EPSetStall+0x48>
 8002666:	b12b      	cbz	r3, 8002674 <USB_EPSetStall+0x48>
 8002668:	f8d0 3b00 	ldr.w	r3, [r0, #2816]	@ 0xb00
 800266c:	f023 4380 	bic.w	r3, r3, #1073741824	@ 0x40000000
 8002670:	f8c0 3b00 	str.w	r3, [r0, #2816]	@ 0xb00
 8002674:	f8d0 3b00 	ldr.w	r3, [r0, #2816]	@ 0xb00
 8002678:	f443 1300 	orr.w	r3, r3, #2097152	@ 0x200000
 800267c:	f8c0 3b00 	str.w	r3, [r0, #2816]	@ 0xb00
 8002680:	e7eb      	b.n	800265a <USB_EPSetStall+0x2e>

08002682 <USB_EPClearStall>:
 8002682:	780b      	ldrb	r3, [r1, #0]
 8002684:	784a      	ldrb	r2, [r1, #1]
 8002686:	eb00 1043 	add.w	r0, r0, r3, lsl #5
 800268a:	790b      	ldrb	r3, [r1, #4]
 800268c:	2a01      	cmp	r2, #1
 800268e:	f1a3 0302 	sub.w	r3, r3, #2
 8002692:	b2db      	uxtb	r3, r3
 8002694:	d10f      	bne.n	80026b6 <USB_EPClearStall+0x34>
 8002696:	f8d0 2900 	ldr.w	r2, [r0, #2304]	@ 0x900
 800269a:	2b01      	cmp	r3, #1
 800269c:	f422 1200 	bic.w	r2, r2, #2097152	@ 0x200000
 80026a0:	f8c0 2900 	str.w	r2, [r0, #2304]	@ 0x900
 80026a4:	d805      	bhi.n	80026b2 <USB_EPClearStall+0x30>
 80026a6:	f8d0 3900 	ldr.w	r3, [r0, #2304]	@ 0x900
 80026aa:	f043 5380 	orr.w	r3, r3, #268435456	@ 0x10000000
 80026ae:	f8c0 3900 	str.w	r3, [r0, #2304]	@ 0x900
 80026b2:	2000      	movs	r0, #0
 80026b4:	4770      	bx	lr
 80026b6:	f8d0 2b00 	ldr.w	r2, [r0, #2816]	@ 0xb00
 80026ba:	f422 1200 	bic.w	r2, r2, #2097152	@ 0x200000
 80026be:	2b01      	cmp	r3, #1
 80026c0:	f8c0 2b00 	str.w	r2, [r0, #2816]	@ 0xb00
 80026c4:	bf9e      	ittt	ls
 80026c6:	f8d0 3b00 	ldrls.w	r3, [r0, #2816]	@ 0xb00
 80026ca:	f043 5380 	orrls.w	r3, r3, #268435456	@ 0x10000000
 80026ce:	f8c0 3b00 	strls.w	r3, [r0, #2816]	@ 0xb00
 80026d2:	e7ee      	b.n	80026b2 <USB_EPClearStall+0x30>

080026d4 <USB_SetDevAddress>:
 80026d4:	f8d0 3800 	ldr.w	r3, [r0, #2048]	@ 0x800
 80026d8:	f423 63fe 	bic.w	r3, r3, #2032	@ 0x7f0
 80026dc:	f8c0 3800 	str.w	r3, [r0, #2048]	@ 0x800
 80026e0:	f8d0 3800 	ldr.w	r3, [r0, #2048]	@ 0x800
 80026e4:	0109      	lsls	r1, r1, #4
 80026e6:	f401 61fe 	and.w	r1, r1, #2032	@ 0x7f0
 80026ea:	4319      	orrs	r1, r3
 80026ec:	f8c0 1800 	str.w	r1, [r0, #2048]	@ 0x800
 80026f0:	2000      	movs	r0, #0
 80026f2:	4770      	bx	lr

080026f4 <USB_DevConnect>:
 80026f4:	f8d0 3e00 	ldr.w	r3, [r0, #3584]	@ 0xe00
 80026f8:	f023 0303 	bic.w	r3, r3, #3
 80026fc:	f8c0 3e00 	str.w	r3, [r0, #3584]	@ 0xe00
 8002700:	f8d0 3804 	ldr.w	r3, [r0, #2052]	@ 0x804
 8002704:	f023 0302 	bic.w	r3, r3, #2
 8002708:	f8c0 3804 	str.w	r3, [r0, #2052]	@ 0x804
 800270c:	2000      	movs	r0, #0
 800270e:	4770      	bx	lr

08002710 <USB_DevDisconnect>:
 8002710:	f8d0 3e00 	ldr.w	r3, [r0, #3584]	@ 0xe00
 8002714:	f023 0303 	bic.w	r3, r3, #3
 8002718:	f8c0 3e00 	str.w	r3, [r0, #3584]	@ 0xe00
 800271c:	f8d0 3804 	ldr.w	r3, [r0, #2052]	@ 0x804
 8002720:	f043 0302 	orr.w	r3, r3, #2
 8002724:	f8c0 3804 	str.w	r3, [r0, #2052]	@ 0x804
 8002728:	2000      	movs	r0, #0
 800272a:	4770      	bx	lr

0800272c <USB_ReadInterrupts>:
 800272c:	6942      	ldr	r2, [r0, #20]
 800272e:	6980      	ldr	r0, [r0, #24]
 8002730:	4010      	ands	r0, r2
 8002732:	4770      	bx	lr

08002734 <USB_ReadDevAllOutEpInterrupt>:
 8002734:	f8d0 3818 	ldr.w	r3, [r0, #2072]	@ 0x818
 8002738:	f500 6000 	add.w	r0, r0, #2048	@ 0x800
 800273c:	69c0      	ldr	r0, [r0, #28]
 800273e:	4018      	ands	r0, r3
 8002740:	0c00      	lsrs	r0, r0, #16
 8002742:	4770      	bx	lr

08002744 <USB_ReadDevAllInEpInterrupt>:
 8002744:	f8d0 3818 	ldr.w	r3, [r0, #2072]	@ 0x818
 8002748:	f500 6000 	add.w	r0, r0, #2048	@ 0x800
 800274c:	69c0      	ldr	r0, [r0, #28]
 800274e:	4018      	ands	r0, r3
 8002750:	b280      	uxth	r0, r0
 8002752:	4770      	bx	lr

08002754 <USB_ReadDevOutEPInterrupt>:
 8002754:	eb00 1141 	add.w	r1, r0, r1, lsl #5
 8002758:	f500 6000 	add.w	r0, r0, #2048	@ 0x800
 800275c:	f8d1 2b08 	ldr.w	r2, [r1, #2824]	@ 0xb08
 8002760:	6940      	ldr	r0, [r0, #20]
 8002762:	4010      	ands	r0, r2
 8002764:	4770      	bx	lr

08002766 <USB_ReadDevInEPInterrupt>:
 8002766:	f8d0 2810 	ldr.w	r2, [r0, #2064]	@ 0x810
 800276a:	f8d0 3834 	ldr.w	r3, [r0, #2100]	@ 0x834
 800276e:	eb00 1041 	add.w	r0, r0, r1, lsl #5
 8002772:	f001 010f 	and.w	r1, r1, #15
 8002776:	40cb      	lsrs	r3, r1
 8002778:	f500 6010 	add.w	r0, r0, #2304	@ 0x900
 800277c:	01db      	lsls	r3, r3, #7
 800277e:	6880      	ldr	r0, [r0, #8]
 8002780:	b2db      	uxtb	r3, r3
 8002782:	4313      	orrs	r3, r2
 8002784:	4018      	ands	r0, r3
 8002786:	4770      	bx	lr

08002788 <USB_GetMode>:
 8002788:	6940      	ldr	r0, [r0, #20]
 800278a:	f000 0001 	and.w	r0, r0, #1
 800278e:	4770      	bx	lr

08002790 <USB_ActivateSetup>:
 8002790:	f8d0 3900 	ldr.w	r3, [r0, #2304]	@ 0x900
 8002794:	f423 63ff 	bic.w	r3, r3, #2040	@ 0x7f8
 8002798:	f023 0307 	bic.w	r3, r3, #7
 800279c:	f8c0 3900 	str.w	r3, [r0, #2304]	@ 0x900
 80027a0:	f8d0 3804 	ldr.w	r3, [r0, #2052]	@ 0x804
 80027a4:	f443 7380 	orr.w	r3, r3, #256	@ 0x100
 80027a8:	f8c0 3804 	str.w	r3, [r0, #2052]	@ 0x804
 80027ac:	2000      	movs	r0, #0
 80027ae:	4770      	bx	lr

080027b0 <USB_EP0_OutStart>:
 80027b0:	b530      	push	{r4, r5, lr}
 80027b2:	6c05      	ldr	r5, [r0, #64]	@ 0x40
 80027b4:	4c10      	ldr	r4, [pc, #64]	@ (80027f8 <USB_EP0_OutStart+0x48>)
 80027b6:	42a5      	cmp	r5, r4
 80027b8:	f500 6330 	add.w	r3, r0, #2816	@ 0xb00
 80027bc:	d903      	bls.n	80027c6 <USB_EP0_OutStart+0x16>
 80027be:	f8d0 4b00 	ldr.w	r4, [r0, #2816]	@ 0xb00
 80027c2:	2c00      	cmp	r4, #0
 80027c4:	db16      	blt.n	80027f4 <USB_EP0_OutStart+0x44>
 80027c6:	2400      	movs	r4, #0
 80027c8:	611c      	str	r4, [r3, #16]
 80027ca:	691c      	ldr	r4, [r3, #16]
 80027cc:	f444 2400 	orr.w	r4, r4, #524288	@ 0x80000
 80027d0:	611c      	str	r4, [r3, #16]
 80027d2:	691c      	ldr	r4, [r3, #16]
 80027d4:	f044 0418 	orr.w	r4, r4, #24
 80027d8:	611c      	str	r4, [r3, #16]
 80027da:	691c      	ldr	r4, [r3, #16]
 80027dc:	2901      	cmp	r1, #1
 80027de:	f044 44c0 	orr.w	r4, r4, #1610612736	@ 0x60000000
 80027e2:	611c      	str	r4, [r3, #16]
 80027e4:	bf01      	itttt	eq
 80027e6:	615a      	streq	r2, [r3, #20]
 80027e8:	f8d0 3b00 	ldreq.w	r3, [r0, #2816]	@ 0xb00
 80027ec:	f043 2380 	orreq.w	r3, r3, #2147516416	@ 0x80008000
 80027f0:	f8c0 3b00 	streq.w	r3, [r0, #2816]	@ 0xb00
 80027f4:	2000      	movs	r0, #0
 80027f6:	bd30      	pop	{r4, r5, pc}
 80027f8:	4f54300a 	.word	0x4f54300a

080027fc <USBD_CDC_EP0_RxReady>:
 80027fc:	f8d0 32d4 	ldr.w	r3, [r0, #724]	@ 0x2d4
 8002800:	eb00 0083 	add.w	r0, r0, r3, lsl #2
 8002804:	b510      	push	{r4, lr}
 8002806:	f8d0 42c0 	ldr.w	r4, [r0, #704]	@ 0x2c0
 800280a:	b18c      	cbz	r4, 8002830 <USBD_CDC_EP0_RxReady+0x34>
 800280c:	f8d0 32c4 	ldr.w	r3, [r0, #708]	@ 0x2c4
 8002810:	b11b      	cbz	r3, 800281a <USBD_CDC_EP0_RxReady+0x1e>
 8002812:	f894 0200 	ldrb.w	r0, [r4, #512]	@ 0x200
 8002816:	28ff      	cmp	r0, #255	@ 0xff
 8002818:	d101      	bne.n	800281e <USBD_CDC_EP0_RxReady+0x22>
 800281a:	2000      	movs	r0, #0
 800281c:	bd10      	pop	{r4, pc}
 800281e:	689b      	ldr	r3, [r3, #8]
 8002820:	f894 2201 	ldrb.w	r2, [r4, #513]	@ 0x201
 8002824:	4621      	mov	r1, r4
 8002826:	4798      	blx	r3
 8002828:	23ff      	movs	r3, #255	@ 0xff
 800282a:	f884 3200 	strb.w	r3, [r4, #512]	@ 0x200
 800282e:	e7f4      	b.n	800281a <USBD_CDC_EP0_RxReady+0x1e>
 8002830:	2003      	movs	r0, #3
 8002832:	e7f3      	b.n	800281c <USBD_CDC_EP0_RxReady+0x20>

08002834 <USBD_CDC_GetDeviceQualifierDescriptor>:
 8002834:	230a      	movs	r3, #10
 8002836:	8003      	strh	r3, [r0, #0]
 8002838:	4800      	ldr	r0, [pc, #0]	@ (800283c <USBD_CDC_GetDeviceQualifierDescriptor+0x8>)
 800283a:	4770      	bx	lr
 800283c:	20000088 	.word	0x20000088

08002840 <USBD_CDC_GetFSCfgDesc>:
 8002840:	b570      	push	{r4, r5, r6, lr}
 8002842:	2182      	movs	r1, #130	@ 0x82
 8002844:	4606      	mov	r6, r0
 8002846:	480f      	ldr	r0, [pc, #60]	@ (8002884 <USBD_CDC_GetFSCfgDesc+0x44>)
 8002848:	f000 fb7a 	bl	8002f40 <USBD_GetEpDesc>
 800284c:	2101      	movs	r1, #1
 800284e:	4605      	mov	r5, r0
 8002850:	480c      	ldr	r0, [pc, #48]	@ (8002884 <USBD_CDC_GetFSCfgDesc+0x44>)
 8002852:	f000 fb75 	bl	8002f40 <USBD_GetEpDesc>
 8002856:	2181      	movs	r1, #129	@ 0x81
 8002858:	4604      	mov	r4, r0
 800285a:	480a      	ldr	r0, [pc, #40]	@ (8002884 <USBD_CDC_GetFSCfgDesc+0x44>)
 800285c:	f000 fb70 	bl	8002f40 <USBD_GetEpDesc>
 8002860:	b10d      	cbz	r5, 8002866 <USBD_CDC_GetFSCfgDesc+0x26>
 8002862:	2210      	movs	r2, #16
 8002864:	71aa      	strb	r2, [r5, #6]
 8002866:	b11c      	cbz	r4, 8002870 <USBD_CDC_GetFSCfgDesc+0x30>
 8002868:	2240      	movs	r2, #64	@ 0x40
 800286a:	7122      	strb	r2, [r4, #4]
 800286c:	2200      	movs	r2, #0
 800286e:	7162      	strb	r2, [r4, #5]
 8002870:	b118      	cbz	r0, 800287a <USBD_CDC_GetFSCfgDesc+0x3a>
 8002872:	2240      	movs	r2, #64	@ 0x40
 8002874:	7102      	strb	r2, [r0, #4]
 8002876:	2200      	movs	r2, #0
 8002878:	7142      	strb	r2, [r0, #5]
 800287a:	2343      	movs	r3, #67	@ 0x43
 800287c:	4801      	ldr	r0, [pc, #4]	@ (8002884 <USBD_CDC_GetFSCfgDesc+0x44>)
 800287e:	8033      	strh	r3, [r6, #0]
 8002880:	bd70      	pop	{r4, r5, r6, pc}
 8002882:	bf00      	nop
 8002884:	2000000c 	.word	0x2000000c

08002888 <USBD_CDC_GetOtherSpeedCfgDesc>:
 8002888:	f7ff bfda 	b.w	8002840 <USBD_CDC_GetFSCfgDesc>

0800288c <USBD_CDC_GetHSCfgDesc>:
 800288c:	b570      	push	{r4, r5, r6, lr}
 800288e:	2182      	movs	r1, #130	@ 0x82
 8002890:	4606      	mov	r6, r0
 8002892:	480f      	ldr	r0, [pc, #60]	@ (80028d0 <USBD_CDC_GetHSCfgDesc+0x44>)
 8002894:	f000 fb54 	bl	8002f40 <USBD_GetEpDesc>
 8002898:	2101      	movs	r1, #1
 800289a:	4605      	mov	r5, r0
 800289c:	480c      	ldr	r0, [pc, #48]	@ (80028d0 <USBD_CDC_GetHSCfgDesc+0x44>)
 800289e:	f000 fb4f 	bl	8002f40 <USBD_GetEpDesc>
 80028a2:	2181      	movs	r1, #129	@ 0x81
 80028a4:	4604      	mov	r4, r0
 80028a6:	480a      	ldr	r0, [pc, #40]	@ (80028d0 <USBD_CDC_GetHSCfgDesc+0x44>)
 80028a8:	f000 fb4a 	bl	8002f40 <USBD_GetEpDesc>
 80028ac:	b10d      	cbz	r5, 80028b2 <USBD_CDC_GetHSCfgDesc+0x26>
 80028ae:	2210      	movs	r2, #16
 80028b0:	71aa      	strb	r2, [r5, #6]
 80028b2:	b11c      	cbz	r4, 80028bc <USBD_CDC_GetHSCfgDesc+0x30>
 80028b4:	2200      	movs	r2, #0
 80028b6:	7122      	strb	r2, [r4, #4]
 80028b8:	2202      	movs	r2, #2
 80028ba:	7162      	strb	r2, [r4, #5]
 80028bc:	b118      	cbz	r0, 80028c6 <USBD_CDC_GetHSCfgDesc+0x3a>
 80028be:	2200      	movs	r2, #0
 80028c0:	7102      	strb	r2, [r0, #4]
 80028c2:	2202      	movs	r2, #2
 80028c4:	7142      	strb	r2, [r0, #5]
 80028c6:	2343      	movs	r3, #67	@ 0x43
 80028c8:	4801      	ldr	r0, [pc, #4]	@ (80028d0 <USBD_CDC_GetHSCfgDesc+0x44>)
 80028ca:	8033      	strh	r3, [r6, #0]
 80028cc:	bd70      	pop	{r4, r5, r6, pc}
 80028ce:	bf00      	nop
 80028d0:	2000000c 	.word	0x2000000c

080028d4 <USBD_CDC_DataOut>:
 80028d4:	b538      	push	{r3, r4, r5, lr}
 80028d6:	f8d0 32d4 	ldr.w	r3, [r0, #724]	@ 0x2d4
 80028da:	33b0      	adds	r3, #176	@ 0xb0
 80028dc:	4604      	mov	r4, r0
 80028de:	f850 5023 	ldr.w	r5, [r0, r3, lsl #2]
 80028e2:	b18d      	cbz	r5, 8002908 <USBD_CDC_DataOut+0x34>
 80028e4:	f001 fd5e 	bl	80043a4 <USBD_LL_GetRxDataSize>
 80028e8:	f8d4 32d4 	ldr.w	r3, [r4, #724]	@ 0x2d4
 80028ec:	f8c5 020c 	str.w	r0, [r5, #524]	@ 0x20c
 80028f0:	eb04 0483 	add.w	r4, r4, r3, lsl #2
 80028f4:	f8d5 0204 	ldr.w	r0, [r5, #516]	@ 0x204
 80028f8:	f8d4 32c4 	ldr.w	r3, [r4, #708]	@ 0x2c4
 80028fc:	f505 7103 	add.w	r1, r5, #524	@ 0x20c
 8002900:	68db      	ldr	r3, [r3, #12]
 8002902:	4798      	blx	r3
 8002904:	2000      	movs	r0, #0
 8002906:	bd38      	pop	{r3, r4, r5, pc}
 8002908:	2003      	movs	r0, #3
 800290a:	e7fc      	b.n	8002906 <USBD_CDC_DataOut+0x32>

0800290c <USBD_CDC_DataIn>:
 800290c:	b5f8      	push	{r3, r4, r5, r6, r7, lr}
 800290e:	f8d0 62d4 	ldr.w	r6, [r0, #724]	@ 0x2d4
 8002912:	f8d0 72c8 	ldr.w	r7, [r0, #712]	@ 0x2c8
 8002916:	eb00 0686 	add.w	r6, r0, r6, lsl #2
 800291a:	460a      	mov	r2, r1
 800291c:	f8d6 52c0 	ldr.w	r5, [r6, #704]	@ 0x2c0
 8002920:	b325      	cbz	r5, 800296c <USBD_CDC_DataIn+0x60>
 8002922:	f001 0c0f 	and.w	ip, r1, #15
 8002926:	2414      	movs	r4, #20
 8002928:	fb04 040c 	mla	r4, r4, ip, r0
 800292c:	69a3      	ldr	r3, [r4, #24]
 800292e:	b17b      	cbz	r3, 8002950 <USBD_CDC_DataIn+0x44>
 8002930:	f04f 0e24 	mov.w	lr, #36	@ 0x24
 8002934:	fb0e 770c 	mla	r7, lr, ip, r7
 8002938:	69ff      	ldr	r7, [r7, #28]
 800293a:	fbb3 fcf7 	udiv	ip, r3, r7
 800293e:	fb07 331c 	mls	r3, r7, ip, r3
 8002942:	b92b      	cbnz	r3, 8002950 <USBD_CDC_DataIn+0x44>
 8002944:	61a3      	str	r3, [r4, #24]
 8002946:	461a      	mov	r2, r3
 8002948:	f001 fd74 	bl	8004434 <USBD_LL_Transmit>
 800294c:	2000      	movs	r0, #0
 800294e:	bdf8      	pop	{r3, r4, r5, r6, r7, pc}
 8002950:	2300      	movs	r3, #0
 8002952:	f8c5 3214 	str.w	r3, [r5, #532]	@ 0x214
 8002956:	f8d6 32c4 	ldr.w	r3, [r6, #708]	@ 0x2c4
 800295a:	691b      	ldr	r3, [r3, #16]
 800295c:	2b00      	cmp	r3, #0
 800295e:	d0f5      	beq.n	800294c <USBD_CDC_DataIn+0x40>
 8002960:	f8d5 0208 	ldr.w	r0, [r5, #520]	@ 0x208
 8002964:	f505 7104 	add.w	r1, r5, #528	@ 0x210
 8002968:	4798      	blx	r3
 800296a:	e7ef      	b.n	800294c <USBD_CDC_DataIn+0x40>
 800296c:	2003      	movs	r0, #3
 800296e:	e7ee      	b.n	800294e <USBD_CDC_DataIn+0x42>

08002970 <USBD_CDC_Setup>:
 8002970:	f8d0 32d4 	ldr.w	r3, [r0, #724]	@ 0x2d4
 8002974:	b5f7      	push	{r0, r1, r2, r4, r5, r6, r7, lr}
 8002976:	eb00 0383 	add.w	r3, r0, r3, lsl #2
 800297a:	2200      	movs	r2, #0
 800297c:	f8d3 62c0 	ldr.w	r6, [r3, #704]	@ 0x2c0
 8002980:	f88d 2005 	strb.w	r2, [sp, #5]
 8002984:	4604      	mov	r4, r0
 8002986:	460d      	mov	r5, r1
 8002988:	f8ad 2006 	strh.w	r2, [sp, #6]
 800298c:	2e00      	cmp	r6, #0
 800298e:	d065      	beq.n	8002a5c <USBD_CDC_Setup+0xec>
 8002990:	f891 c000 	ldrb.w	ip, [r1]
 8002994:	f01c 0260 	ands.w	r2, ip, #96	@ 0x60
 8002998:	d029      	beq.n	80029ee <USBD_CDC_Setup+0x7e>
 800299a:	2a20      	cmp	r2, #32
 800299c:	d15a      	bne.n	8002a54 <USBD_CDC_Setup+0xe4>
 800299e:	88ca      	ldrh	r2, [r1, #6]
 80029a0:	784f      	ldrb	r7, [r1, #1]
 80029a2:	b1f2      	cbz	r2, 80029e2 <USBD_CDC_Setup+0x72>
 80029a4:	f01c 0f80 	tst.w	ip, #128	@ 0x80
 80029a8:	d00e      	beq.n	80029c8 <USBD_CDC_Setup+0x58>
 80029aa:	f8d3 32c4 	ldr.w	r3, [r3, #708]	@ 0x2c4
 80029ae:	4631      	mov	r1, r6
 80029b0:	689b      	ldr	r3, [r3, #8]
 80029b2:	4638      	mov	r0, r7
 80029b4:	4798      	blx	r3
 80029b6:	88ea      	ldrh	r2, [r5, #6]
 80029b8:	2a07      	cmp	r2, #7
 80029ba:	bf28      	it	cs
 80029bc:	2207      	movcs	r2, #7
 80029be:	4631      	mov	r1, r6
 80029c0:	4620      	mov	r0, r4
 80029c2:	f000 fd1d 	bl	8003400 <USBD_CtlSendData>
 80029c6:	e009      	b.n	80029dc <USBD_CDC_Setup+0x6c>
 80029c8:	2a40      	cmp	r2, #64	@ 0x40
 80029ca:	bf28      	it	cs
 80029cc:	2240      	movcs	r2, #64	@ 0x40
 80029ce:	f886 7200 	strb.w	r7, [r6, #512]	@ 0x200
 80029d2:	f886 2201 	strb.w	r2, [r6, #513]	@ 0x201
 80029d6:	4631      	mov	r1, r6
 80029d8:	f000 fd27 	bl	800342a <USBD_CtlPrepareRx>
 80029dc:	2000      	movs	r0, #0
 80029de:	b003      	add	sp, #12
 80029e0:	bdf0      	pop	{r4, r5, r6, r7, pc}
 80029e2:	f8d3 32c4 	ldr.w	r3, [r3, #708]	@ 0x2c4
 80029e6:	4638      	mov	r0, r7
 80029e8:	689b      	ldr	r3, [r3, #8]
 80029ea:	4798      	blx	r3
 80029ec:	e7f6      	b.n	80029dc <USBD_CDC_Setup+0x6c>
 80029ee:	784b      	ldrb	r3, [r1, #1]
 80029f0:	2b0b      	cmp	r3, #11
 80029f2:	d82f      	bhi.n	8002a54 <USBD_CDC_Setup+0xe4>
 80029f4:	a201      	add	r2, pc, #4	@ (adr r2, 80029fc <USBD_CDC_Setup+0x8c>)
 80029f6:	f852 f023 	ldr.w	pc, [r2, r3, lsl #2]
 80029fa:	bf00      	nop
 80029fc:	08002a2d 	.word	0x08002a2d
 8002a00:	080029dd 	.word	0x080029dd
 8002a04:	08002a55 	.word	0x08002a55
 8002a08:	08002a55 	.word	0x08002a55
 8002a0c:	08002a55 	.word	0x08002a55
 8002a10:	08002a55 	.word	0x08002a55
 8002a14:	08002a55 	.word	0x08002a55
 8002a18:	08002a55 	.word	0x08002a55
 8002a1c:	08002a55 	.word	0x08002a55
 8002a20:	08002a55 	.word	0x08002a55
 8002a24:	08002a3d 	.word	0x08002a3d
 8002a28:	08002a4d 	.word	0x08002a4d
 8002a2c:	f890 329c 	ldrb.w	r3, [r0, #668]	@ 0x29c
 8002a30:	2b03      	cmp	r3, #3
 8002a32:	d10f      	bne.n	8002a54 <USBD_CDC_Setup+0xe4>
 8002a34:	2202      	movs	r2, #2
 8002a36:	f10d 0106 	add.w	r1, sp, #6
 8002a3a:	e7c1      	b.n	80029c0 <USBD_CDC_Setup+0x50>
 8002a3c:	f890 329c 	ldrb.w	r3, [r0, #668]	@ 0x29c
 8002a40:	2b03      	cmp	r3, #3
 8002a42:	d107      	bne.n	8002a54 <USBD_CDC_Setup+0xe4>
 8002a44:	2201      	movs	r2, #1
 8002a46:	f10d 0105 	add.w	r1, sp, #5
 8002a4a:	e7b9      	b.n	80029c0 <USBD_CDC_Setup+0x50>
 8002a4c:	f890 329c 	ldrb.w	r3, [r0, #668]	@ 0x29c
 8002a50:	2b03      	cmp	r3, #3
 8002a52:	d0c3      	beq.n	80029dc <USBD_CDC_Setup+0x6c>
 8002a54:	4629      	mov	r1, r5
 8002a56:	4620      	mov	r0, r4
 8002a58:	f000 fcab 	bl	80033b2 <USBD_CtlError>
 8002a5c:	2003      	movs	r0, #3
 8002a5e:	e7be      	b.n	80029de <USBD_CDC_Setup+0x6e>

08002a60 <USBD_CDC_DeInit>:
 8002a60:	b538      	push	{r3, r4, r5, lr}
 8002a62:	4604      	mov	r4, r0
 8002a64:	2500      	movs	r5, #0
 8002a66:	2181      	movs	r1, #129	@ 0x81
 8002a68:	f001 fcc0 	bl	80043ec <USBD_LL_CloseEP>
 8002a6c:	2101      	movs	r1, #1
 8002a6e:	8725      	strh	r5, [r4, #56]	@ 0x38
 8002a70:	4620      	mov	r0, r4
 8002a72:	f001 fcbb 	bl	80043ec <USBD_LL_CloseEP>
 8002a76:	f8a4 5178 	strh.w	r5, [r4, #376]	@ 0x178
 8002a7a:	2182      	movs	r1, #130	@ 0x82
 8002a7c:	4620      	mov	r0, r4
 8002a7e:	f001 fcb5 	bl	80043ec <USBD_LL_CloseEP>
 8002a82:	f8d4 32d4 	ldr.w	r3, [r4, #724]	@ 0x2d4
 8002a86:	64e5      	str	r5, [r4, #76]	@ 0x4c
 8002a88:	eb04 0383 	add.w	r3, r4, r3, lsl #2
 8002a8c:	f8d3 22c0 	ldr.w	r2, [r3, #704]	@ 0x2c0
 8002a90:	b18a      	cbz	r2, 8002ab6 <USBD_CDC_DeInit+0x56>
 8002a92:	f8d3 32c4 	ldr.w	r3, [r3, #708]	@ 0x2c4
 8002a96:	685b      	ldr	r3, [r3, #4]
 8002a98:	4798      	blx	r3
 8002a9a:	f8d4 32d4 	ldr.w	r3, [r4, #724]	@ 0x2d4
 8002a9e:	33b0      	adds	r3, #176	@ 0xb0
 8002aa0:	f854 0023 	ldr.w	r0, [r4, r3, lsl #2]
 8002aa4:	f001 fc86 	bl	80043b4 <USBD_static_free>
 8002aa8:	f8d4 32d4 	ldr.w	r3, [r4, #724]	@ 0x2d4
 8002aac:	33b0      	adds	r3, #176	@ 0xb0
 8002aae:	f844 5023 	str.w	r5, [r4, r3, lsl #2]
 8002ab2:	f8c4 52bc 	str.w	r5, [r4, #700]	@ 0x2bc
 8002ab6:	2000      	movs	r0, #0
 8002ab8:	bd38      	pop	{r3, r4, r5, pc}

08002aba <USBD_CDC_Init>:
 8002aba:	b5f8      	push	{r3, r4, r5, r6, r7, lr}
 8002abc:	4604      	mov	r4, r0
 8002abe:	f44f 7007 	mov.w	r0, #540	@ 0x21c
 8002ac2:	f001 fc73 	bl	80043ac <USBD_static_malloc>
 8002ac6:	4605      	mov	r5, r0
 8002ac8:	b930      	cbnz	r0, 8002ad8 <USBD_CDC_Init+0x1e>
 8002aca:	f8d4 32d4 	ldr.w	r3, [r4, #724]	@ 0x2d4
 8002ace:	33b0      	adds	r3, #176	@ 0xb0
 8002ad0:	f844 0023 	str.w	r0, [r4, r3, lsl #2]
 8002ad4:	2002      	movs	r0, #2
 8002ad6:	e046      	b.n	8002b66 <USBD_CDC_Init+0xac>
 8002ad8:	f44f 7207 	mov.w	r2, #540	@ 0x21c
 8002adc:	2100      	movs	r1, #0
 8002ade:	f001 fddb 	bl	8004698 <memset>
 8002ae2:	f8d4 32d4 	ldr.w	r3, [r4, #724]	@ 0x2d4
 8002ae6:	33b0      	adds	r3, #176	@ 0xb0
 8002ae8:	f844 5023 	str.w	r5, [r4, r3, lsl #2]
 8002aec:	7c23      	ldrb	r3, [r4, #16]
 8002aee:	f8c4 52bc 	str.w	r5, [r4, #700]	@ 0x2bc
 8002af2:	bbcb      	cbnz	r3, 8002b68 <USBD_CDC_Init+0xae>
 8002af4:	f44f 7300 	mov.w	r3, #512	@ 0x200
 8002af8:	2181      	movs	r1, #129	@ 0x81
 8002afa:	2202      	movs	r2, #2
 8002afc:	4620      	mov	r0, r4
 8002afe:	f001 fc69 	bl	80043d4 <USBD_LL_OpenEP>
 8002b02:	2101      	movs	r1, #1
 8002b04:	8721      	strh	r1, [r4, #56]	@ 0x38
 8002b06:	f44f 7300 	mov.w	r3, #512	@ 0x200
 8002b0a:	2202      	movs	r2, #2
 8002b0c:	4620      	mov	r0, r4
 8002b0e:	f001 fc61 	bl	80043d4 <USBD_LL_OpenEP>
 8002b12:	2601      	movs	r6, #1
 8002b14:	2310      	movs	r3, #16
 8002b16:	2203      	movs	r2, #3
 8002b18:	f8a4 304e 	strh.w	r3, [r4, #78]	@ 0x4e
 8002b1c:	2182      	movs	r1, #130	@ 0x82
 8002b1e:	2308      	movs	r3, #8
 8002b20:	f8a4 6178 	strh.w	r6, [r4, #376]	@ 0x178
 8002b24:	4620      	mov	r0, r4
 8002b26:	f001 fc55 	bl	80043d4 <USBD_LL_OpenEP>
 8002b2a:	f8d4 32d4 	ldr.w	r3, [r4, #724]	@ 0x2d4
 8002b2e:	f8a4 604c 	strh.w	r6, [r4, #76]	@ 0x4c
 8002b32:	eb04 0383 	add.w	r3, r4, r3, lsl #2
 8002b36:	2700      	movs	r7, #0
 8002b38:	f8d3 32c4 	ldr.w	r3, [r3, #708]	@ 0x2c4
 8002b3c:	f8c5 7204 	str.w	r7, [r5, #516]	@ 0x204
 8002b40:	681b      	ldr	r3, [r3, #0]
 8002b42:	4798      	blx	r3
 8002b44:	f8d5 2204 	ldr.w	r2, [r5, #516]	@ 0x204
 8002b48:	f8c5 7214 	str.w	r7, [r5, #532]	@ 0x214
 8002b4c:	f8c5 7218 	str.w	r7, [r5, #536]	@ 0x218
 8002b50:	2a00      	cmp	r2, #0
 8002b52:	d0bf      	beq.n	8002ad4 <USBD_CDC_Init+0x1a>
 8002b54:	7c23      	ldrb	r3, [r4, #16]
 8002b56:	b98b      	cbnz	r3, 8002b7c <USBD_CDC_Init+0xc2>
 8002b58:	f44f 7300 	mov.w	r3, #512	@ 0x200
 8002b5c:	4631      	mov	r1, r6
 8002b5e:	4620      	mov	r0, r4
 8002b60:	f001 fc71 	bl	8004446 <USBD_LL_PrepareReceive>
 8002b64:	2000      	movs	r0, #0
 8002b66:	bdf8      	pop	{r3, r4, r5, r6, r7, pc}
 8002b68:	2340      	movs	r3, #64	@ 0x40
 8002b6a:	2181      	movs	r1, #129	@ 0x81
 8002b6c:	2202      	movs	r2, #2
 8002b6e:	4620      	mov	r0, r4
 8002b70:	f001 fc30 	bl	80043d4 <USBD_LL_OpenEP>
 8002b74:	2101      	movs	r1, #1
 8002b76:	8721      	strh	r1, [r4, #56]	@ 0x38
 8002b78:	2340      	movs	r3, #64	@ 0x40
 8002b7a:	e7c6      	b.n	8002b0a <USBD_CDC_Init+0x50>
 8002b7c:	2340      	movs	r3, #64	@ 0x40
 8002b7e:	e7ed      	b.n	8002b5c <USBD_CDC_Init+0xa2>

08002b80 <USBD_CDC_RegisterInterface>:
 8002b80:	b139      	cbz	r1, 8002b92 <USBD_CDC_RegisterInterface+0x12>
 8002b82:	f8d0 32d4 	ldr.w	r3, [r0, #724]	@ 0x2d4
 8002b86:	eb00 0083 	add.w	r0, r0, r3, lsl #2
 8002b8a:	f8c0 12c4 	str.w	r1, [r0, #708]	@ 0x2c4
 8002b8e:	2000      	movs	r0, #0
 8002b90:	4770      	bx	lr
 8002b92:	2003      	movs	r0, #3
 8002b94:	4770      	bx	lr

08002b96 <USBD_CDC_SetTxBuffer>:
 8002b96:	f8d0 32d4 	ldr.w	r3, [r0, #724]	@ 0x2d4
 8002b9a:	33b0      	adds	r3, #176	@ 0xb0
 8002b9c:	f850 3023 	ldr.w	r3, [r0, r3, lsl #2]
 8002ba0:	b12b      	cbz	r3, 8002bae <USBD_CDC_SetTxBuffer+0x18>
 8002ba2:	f8c3 1208 	str.w	r1, [r3, #520]	@ 0x208
 8002ba6:	f8c3 2210 	str.w	r2, [r3, #528]	@ 0x210
 8002baa:	2000      	movs	r0, #0
 8002bac:	4770      	bx	lr
 8002bae:	2003      	movs	r0, #3
 8002bb0:	4770      	bx	lr

08002bb2 <USBD_CDC_SetRxBuffer>:
 8002bb2:	f8d0 32d4 	ldr.w	r3, [r0, #724]	@ 0x2d4
 8002bb6:	33b0      	adds	r3, #176	@ 0xb0
 8002bb8:	f850 3023 	ldr.w	r3, [r0, r3, lsl #2]
 8002bbc:	b11b      	cbz	r3, 8002bc6 <USBD_CDC_SetRxBuffer+0x14>
 8002bbe:	f8c3 1204 	str.w	r1, [r3, #516]	@ 0x204
 8002bc2:	2000      	movs	r0, #0
 8002bc4:	4770      	bx	lr
 8002bc6:	2003      	movs	r0, #3
 8002bc8:	4770      	bx	lr

08002bca <USBD_CDC_TransmitPacket>:
 8002bca:	f8d0 32d4 	ldr.w	r3, [r0, #724]	@ 0x2d4
 8002bce:	33b0      	adds	r3, #176	@ 0xb0
 8002bd0:	b510      	push	{r4, lr}
 8002bd2:	f850 2023 	ldr.w	r2, [r0, r3, lsl #2]
 8002bd6:	b17a      	cbz	r2, 8002bf8 <USBD_CDC_TransmitPacket+0x2e>
 8002bd8:	f8d2 4214 	ldr.w	r4, [r2, #532]	@ 0x214
 8002bdc:	2301      	movs	r3, #1
 8002bde:	b96c      	cbnz	r4, 8002bfc <USBD_CDC_TransmitPacket+0x32>
 8002be0:	f8c2 3214 	str.w	r3, [r2, #532]	@ 0x214
 8002be4:	f8d2 3210 	ldr.w	r3, [r2, #528]	@ 0x210
 8002be8:	62c3      	str	r3, [r0, #44]	@ 0x2c
 8002bea:	f8d2 2208 	ldr.w	r2, [r2, #520]	@ 0x208
 8002bee:	2181      	movs	r1, #129	@ 0x81
 8002bf0:	f001 fc20 	bl	8004434 <USBD_LL_Transmit>
 8002bf4:	4620      	mov	r0, r4
 8002bf6:	bd10      	pop	{r4, pc}
 8002bf8:	2003      	movs	r0, #3
 8002bfa:	e7fc      	b.n	8002bf6 <USBD_CDC_TransmitPacket+0x2c>
 8002bfc:	4618      	mov	r0, r3
 8002bfe:	e7fa      	b.n	8002bf6 <USBD_CDC_TransmitPacket+0x2c>

08002c00 <USBD_CDC_ReceivePacket>:
 8002c00:	f8d0 22d4 	ldr.w	r2, [r0, #724]	@ 0x2d4
 8002c04:	32b0      	adds	r2, #176	@ 0xb0
 8002c06:	b508      	push	{r3, lr}
 8002c08:	f850 2022 	ldr.w	r2, [r0, r2, lsl #2]
 8002c0c:	b162      	cbz	r2, 8002c28 <USBD_CDC_ReceivePacket+0x28>
 8002c0e:	7c03      	ldrb	r3, [r0, #16]
 8002c10:	f8d2 2204 	ldr.w	r2, [r2, #516]	@ 0x204
 8002c14:	b933      	cbnz	r3, 8002c24 <USBD_CDC_ReceivePacket+0x24>
 8002c16:	f44f 7300 	mov.w	r3, #512	@ 0x200
 8002c1a:	2101      	movs	r1, #1
 8002c1c:	f001 fc13 	bl	8004446 <USBD_LL_PrepareReceive>
 8002c20:	2000      	movs	r0, #0
 8002c22:	bd08      	pop	{r3, pc}
 8002c24:	2340      	movs	r3, #64	@ 0x40
 8002c26:	e7f8      	b.n	8002c1a <USBD_CDC_ReceivePacket+0x1a>
 8002c28:	2003      	movs	r0, #3
 8002c2a:	e7fa      	b.n	8002c22 <USBD_CDC_ReceivePacket+0x22>

08002c2c <USBD_Init>:
 8002c2c:	b178      	cbz	r0, 8002c4e <USBD_Init+0x22>
 8002c2e:	2300      	movs	r3, #0
 8002c30:	f8c0 32b8 	str.w	r3, [r0, #696]	@ 0x2b8
 8002c34:	f8c0 32c4 	str.w	r3, [r0, #708]	@ 0x2c4
 8002c38:	f8c0 32d0 	str.w	r3, [r0, #720]	@ 0x2d0
 8002c3c:	b109      	cbz	r1, 8002c42 <USBD_Init+0x16>
 8002c3e:	f8c0 12b4 	str.w	r1, [r0, #692]	@ 0x2b4
 8002c42:	2301      	movs	r3, #1
 8002c44:	f880 329c 	strb.w	r3, [r0, #668]	@ 0x29c
 8002c48:	7002      	strb	r2, [r0, #0]
 8002c4a:	f001 bb6b 	b.w	8004324 <USBD_LL_Init>
 8002c4e:	2003      	movs	r0, #3
 8002c50:	4770      	bx	lr

08002c52 <USBD_RegisterClass>:
 8002c52:	b513      	push	{r0, r1, r4, lr}
 8002c54:	2300      	movs	r3, #0
 8002c56:	4604      	mov	r4, r0
 8002c58:	f8ad 3006 	strh.w	r3, [sp, #6]
 8002c5c:	b181      	cbz	r1, 8002c80 <USBD_RegisterClass+0x2e>
 8002c5e:	6acb      	ldr	r3, [r1, #44]	@ 0x2c
 8002c60:	f8c0 12b8 	str.w	r1, [r0, #696]	@ 0x2b8
 8002c64:	b123      	cbz	r3, 8002c70 <USBD_RegisterClass+0x1e>
 8002c66:	f10d 0006 	add.w	r0, sp, #6
 8002c6a:	4798      	blx	r3
 8002c6c:	f8c4 02d0 	str.w	r0, [r4, #720]	@ 0x2d0
 8002c70:	f8d4 32d8 	ldr.w	r3, [r4, #728]	@ 0x2d8
 8002c74:	3301      	adds	r3, #1
 8002c76:	f8c4 32d8 	str.w	r3, [r4, #728]	@ 0x2d8
 8002c7a:	2000      	movs	r0, #0
 8002c7c:	b002      	add	sp, #8
 8002c7e:	bd10      	pop	{r4, pc}
 8002c80:	2003      	movs	r0, #3
 8002c82:	e7fb      	b.n	8002c7c <USBD_RegisterClass+0x2a>

08002c84 <USBD_Start>:
 8002c84:	f001 bb9d 	b.w	80043c2 <USBD_LL_Start>

08002c88 <USBD_SetClassConfig>:
 8002c88:	f8d0 32b8 	ldr.w	r3, [r0, #696]	@ 0x2b8
 8002c8c:	b10b      	cbz	r3, 8002c92 <USBD_SetClassConfig+0xa>
 8002c8e:	681b      	ldr	r3, [r3, #0]
 8002c90:	4718      	bx	r3
 8002c92:	4618      	mov	r0, r3
 8002c94:	4770      	bx	lr

08002c96 <USBD_ClrClassConfig>:
 8002c96:	b508      	push	{r3, lr}
 8002c98:	f8d0 32b8 	ldr.w	r3, [r0, #696]	@ 0x2b8
 8002c9c:	685b      	ldr	r3, [r3, #4]
 8002c9e:	4798      	blx	r3
 8002ca0:	2800      	cmp	r0, #0
 8002ca2:	bf18      	it	ne
 8002ca4:	2003      	movne	r0, #3
 8002ca6:	bd08      	pop	{r3, pc}

08002ca8 <USBD_LL_SetupStage>:
 8002ca8:	b538      	push	{r3, r4, r5, lr}
 8002caa:	4604      	mov	r4, r0
 8002cac:	f200 25aa 	addw	r5, r0, #682	@ 0x2aa
 8002cb0:	4628      	mov	r0, r5
 8002cb2:	f000 fb73 	bl	800339c <USBD_ParseSetupRequest>
 8002cb6:	2301      	movs	r3, #1
 8002cb8:	f894 12aa 	ldrb.w	r1, [r4, #682]	@ 0x2aa
 8002cbc:	f8c4 3294 	str.w	r3, [r4, #660]	@ 0x294
 8002cc0:	f8b4 32b0 	ldrh.w	r3, [r4, #688]	@ 0x2b0
 8002cc4:	f8c4 3298 	str.w	r3, [r4, #664]	@ 0x298
 8002cc8:	f001 031f 	and.w	r3, r1, #31
 8002ccc:	2b01      	cmp	r3, #1
 8002cce:	d008      	beq.n	8002ce2 <USBD_LL_SetupStage+0x3a>
 8002cd0:	2b02      	cmp	r3, #2
 8002cd2:	d00c      	beq.n	8002cee <USBD_LL_SetupStage+0x46>
 8002cd4:	b98b      	cbnz	r3, 8002cfa <USBD_LL_SetupStage+0x52>
 8002cd6:	4629      	mov	r1, r5
 8002cd8:	4620      	mov	r0, r4
 8002cda:	e8bd 4038 	ldmia.w	sp!, {r3, r4, r5, lr}
 8002cde:	f000 b94d 	b.w	8002f7c <USBD_StdDevReq>
 8002ce2:	4629      	mov	r1, r5
 8002ce4:	4620      	mov	r0, r4
 8002ce6:	e8bd 4038 	ldmia.w	sp!, {r3, r4, r5, lr}
 8002cea:	f000 ba8d 	b.w	8003208 <USBD_StdItfReq>
 8002cee:	4629      	mov	r1, r5
 8002cf0:	4620      	mov	r0, r4
 8002cf2:	e8bd 4038 	ldmia.w	sp!, {r3, r4, r5, lr}
 8002cf6:	f000 bab4 	b.w	8003262 <USBD_StdEPReq>
 8002cfa:	4620      	mov	r0, r4
 8002cfc:	f001 0180 	and.w	r1, r1, #128	@ 0x80
 8002d00:	e8bd 4038 	ldmia.w	sp!, {r3, r4, r5, lr}
 8002d04:	f001 bb7b 	b.w	80043fe <USBD_LL_StallEP>

08002d08 <USBD_LL_DataOutStage>:
 8002d08:	b570      	push	{r4, r5, r6, lr}
 8002d0a:	4604      	mov	r4, r0
 8002d0c:	4616      	mov	r6, r2
 8002d0e:	bb09      	cbnz	r1, 8002d54 <USBD_LL_DataOutStage+0x4c>
 8002d10:	f8d0 3294 	ldr.w	r3, [r0, #660]	@ 0x294
 8002d14:	2b03      	cmp	r3, #3
 8002d16:	d10c      	bne.n	8002d32 <USBD_LL_DataOutStage+0x2a>
 8002d18:	e9d0 3257 	ldrd	r3, r2, [r0, #348]	@ 0x15c
 8002d1c:	4293      	cmp	r3, r2
 8002d1e:	d90a      	bls.n	8002d36 <USBD_LL_DataOutStage+0x2e>
 8002d20:	1a9b      	subs	r3, r3, r2
 8002d22:	429a      	cmp	r2, r3
 8002d24:	f8c0 315c 	str.w	r3, [r0, #348]	@ 0x15c
 8002d28:	bf28      	it	cs
 8002d2a:	461a      	movcs	r2, r3
 8002d2c:	4631      	mov	r1, r6
 8002d2e:	f000 fb89 	bl	8003444 <USBD_CtlContinueRx>
 8002d32:	2000      	movs	r0, #0
 8002d34:	bd70      	pop	{r4, r5, r6, pc}
 8002d36:	f890 329c 	ldrb.w	r3, [r0, #668]	@ 0x29c
 8002d3a:	2b03      	cmp	r3, #3
 8002d3c:	d106      	bne.n	8002d4c <USBD_LL_DataOutStage+0x44>
 8002d3e:	f8d0 32b8 	ldr.w	r3, [r0, #696]	@ 0x2b8
 8002d42:	691b      	ldr	r3, [r3, #16]
 8002d44:	b113      	cbz	r3, 8002d4c <USBD_LL_DataOutStage+0x44>
 8002d46:	f8c0 12d4 	str.w	r1, [r0, #724]	@ 0x2d4
 8002d4a:	4798      	blx	r3
 8002d4c:	4620      	mov	r0, r4
 8002d4e:	f000 fb81 	bl	8003454 <USBD_CtlSendStatus>
 8002d52:	e7ee      	b.n	8002d32 <USBD_LL_DataOutStage+0x2a>
 8002d54:	f890 329c 	ldrb.w	r3, [r0, #668]	@ 0x29c
 8002d58:	2b03      	cmp	r3, #3
 8002d5a:	d1ea      	bne.n	8002d32 <USBD_LL_DataOutStage+0x2a>
 8002d5c:	f8d0 32b8 	ldr.w	r3, [r0, #696]	@ 0x2b8
 8002d60:	699b      	ldr	r3, [r3, #24]
 8002d62:	2b00      	cmp	r3, #0
 8002d64:	d0e5      	beq.n	8002d32 <USBD_LL_DataOutStage+0x2a>
 8002d66:	2200      	movs	r2, #0
 8002d68:	e8bd 4070 	ldmia.w	sp!, {r4, r5, r6, lr}
 8002d6c:	f8c0 22d4 	str.w	r2, [r0, #724]	@ 0x2d4
 8002d70:	4718      	bx	r3

08002d72 <USBD_LL_DataInStage>:
 8002d72:	b570      	push	{r4, r5, r6, lr}
 8002d74:	4604      	mov	r4, r0
 8002d76:	4616      	mov	r6, r2
 8002d78:	460d      	mov	r5, r1
 8002d7a:	2900      	cmp	r1, #0
 8002d7c:	d13d      	bne.n	8002dfa <USBD_LL_DataInStage+0x88>
 8002d7e:	f8d0 3294 	ldr.w	r3, [r0, #660]	@ 0x294
 8002d82:	2b02      	cmp	r3, #2
 8002d84:	d10e      	bne.n	8002da4 <USBD_LL_DataInStage+0x32>
 8002d86:	e9d0 3207 	ldrd	r3, r2, [r0, #28]
 8002d8a:	4293      	cmp	r3, r2
 8002d8c:	d912      	bls.n	8002db4 <USBD_LL_DataInStage+0x42>
 8002d8e:	1a9a      	subs	r2, r3, r2
 8002d90:	61c2      	str	r2, [r0, #28]
 8002d92:	4631      	mov	r1, r6
 8002d94:	f000 fb41 	bl	800341a <USBD_CtlContinueSendData>
 8002d98:	462b      	mov	r3, r5
 8002d9a:	462a      	mov	r2, r5
 8002d9c:	4629      	mov	r1, r5
 8002d9e:	4620      	mov	r0, r4
 8002da0:	f001 fb51 	bl	8004446 <USBD_LL_PrepareReceive>
 8002da4:	f894 32a0 	ldrb.w	r3, [r4, #672]	@ 0x2a0
 8002da8:	b113      	cbz	r3, 8002db0 <USBD_LL_DataInStage+0x3e>
 8002daa:	2300      	movs	r3, #0
 8002dac:	f884 32a0 	strb.w	r3, [r4, #672]	@ 0x2a0
 8002db0:	2000      	movs	r0, #0
 8002db2:	bd70      	pop	{r4, r5, r6, pc}
 8002db4:	d10c      	bne.n	8002dd0 <USBD_LL_DataInStage+0x5e>
 8002db6:	6982      	ldr	r2, [r0, #24]
 8002db8:	4293      	cmp	r3, r2
 8002dba:	d809      	bhi.n	8002dd0 <USBD_LL_DataInStage+0x5e>
 8002dbc:	f8d0 3298 	ldr.w	r3, [r0, #664]	@ 0x298
 8002dc0:	429a      	cmp	r2, r3
 8002dc2:	d205      	bcs.n	8002dd0 <USBD_LL_DataInStage+0x5e>
 8002dc4:	460a      	mov	r2, r1
 8002dc6:	f000 fb28 	bl	800341a <USBD_CtlContinueSendData>
 8002dca:	f8c4 5298 	str.w	r5, [r4, #664]	@ 0x298
 8002dce:	e7e3      	b.n	8002d98 <USBD_LL_DataInStage+0x26>
 8002dd0:	f894 329c 	ldrb.w	r3, [r4, #668]	@ 0x29c
 8002dd4:	2b03      	cmp	r3, #3
 8002dd6:	d108      	bne.n	8002dea <USBD_LL_DataInStage+0x78>
 8002dd8:	f8d4 32b8 	ldr.w	r3, [r4, #696]	@ 0x2b8
 8002ddc:	68db      	ldr	r3, [r3, #12]
 8002dde:	b123      	cbz	r3, 8002dea <USBD_LL_DataInStage+0x78>
 8002de0:	2200      	movs	r2, #0
 8002de2:	f8c4 22d4 	str.w	r2, [r4, #724]	@ 0x2d4
 8002de6:	4620      	mov	r0, r4
 8002de8:	4798      	blx	r3
 8002dea:	2180      	movs	r1, #128	@ 0x80
 8002dec:	4620      	mov	r0, r4
 8002dee:	f001 fb06 	bl	80043fe <USBD_LL_StallEP>
 8002df2:	4620      	mov	r0, r4
 8002df4:	f000 fb39 	bl	800346a <USBD_CtlReceiveStatus>
 8002df8:	e7d4      	b.n	8002da4 <USBD_LL_DataInStage+0x32>
 8002dfa:	f890 329c 	ldrb.w	r3, [r0, #668]	@ 0x29c
 8002dfe:	2b03      	cmp	r3, #3
 8002e00:	d1d6      	bne.n	8002db0 <USBD_LL_DataInStage+0x3e>
 8002e02:	f8d0 32b8 	ldr.w	r3, [r0, #696]	@ 0x2b8
 8002e06:	695b      	ldr	r3, [r3, #20]
 8002e08:	2b00      	cmp	r3, #0
 8002e0a:	d0d1      	beq.n	8002db0 <USBD_LL_DataInStage+0x3e>
 8002e0c:	2200      	movs	r2, #0
 8002e0e:	e8bd 4070 	ldmia.w	sp!, {r4, r5, r6, lr}
 8002e12:	f8c0 22d4 	str.w	r2, [r0, #724]	@ 0x2d4
 8002e16:	4718      	bx	r3

08002e18 <USBD_LL_Reset>:
 8002e18:	b5f8      	push	{r3, r4, r5, r6, r7, lr}
 8002e1a:	2301      	movs	r3, #1
 8002e1c:	f880 329c 	strb.w	r3, [r0, #668]	@ 0x29c
 8002e20:	f8d0 32b8 	ldr.w	r3, [r0, #696]	@ 0x2b8
 8002e24:	2100      	movs	r1, #0
 8002e26:	4604      	mov	r4, r0
 8002e28:	f8c0 1294 	str.w	r1, [r0, #660]	@ 0x294
 8002e2c:	6041      	str	r1, [r0, #4]
 8002e2e:	f8c0 12a4 	str.w	r1, [r0, #676]	@ 0x2a4
 8002e32:	f880 12a0 	strb.w	r1, [r0, #672]	@ 0x2a0
 8002e36:	b9b3      	cbnz	r3, 8002e66 <USBD_LL_Reset+0x4e>
 8002e38:	2600      	movs	r6, #0
 8002e3a:	2200      	movs	r2, #0
 8002e3c:	2540      	movs	r5, #64	@ 0x40
 8002e3e:	4611      	mov	r1, r2
 8002e40:	2701      	movs	r7, #1
 8002e42:	2340      	movs	r3, #64	@ 0x40
 8002e44:	4620      	mov	r0, r4
 8002e46:	f001 fac5 	bl	80043d4 <USBD_LL_OpenEP>
 8002e4a:	f8a4 7164 	strh.w	r7, [r4, #356]	@ 0x164
 8002e4e:	f8c4 5160 	str.w	r5, [r4, #352]	@ 0x160
 8002e52:	462b      	mov	r3, r5
 8002e54:	2200      	movs	r2, #0
 8002e56:	2180      	movs	r1, #128	@ 0x80
 8002e58:	4620      	mov	r0, r4
 8002e5a:	f001 fabb 	bl	80043d4 <USBD_LL_OpenEP>
 8002e5e:	84a7      	strh	r7, [r4, #36]	@ 0x24
 8002e60:	6225      	str	r5, [r4, #32]
 8002e62:	4630      	mov	r0, r6
 8002e64:	bdf8      	pop	{r3, r4, r5, r6, r7, pc}
 8002e66:	685b      	ldr	r3, [r3, #4]
 8002e68:	2b00      	cmp	r3, #0
 8002e6a:	d0e5      	beq.n	8002e38 <USBD_LL_Reset+0x20>
 8002e6c:	4798      	blx	r3
 8002e6e:	2800      	cmp	r0, #0
 8002e70:	d0e2      	beq.n	8002e38 <USBD_LL_Reset+0x20>
 8002e72:	2603      	movs	r6, #3
 8002e74:	e7e1      	b.n	8002e3a <USBD_LL_Reset+0x22>

08002e76 <USBD_LL_SetSpeed>:
 8002e76:	7401      	strb	r1, [r0, #16]
 8002e78:	2000      	movs	r0, #0
 8002e7a:	4770      	bx	lr

08002e7c <USBD_LL_Suspend>:
 8002e7c:	f890 329c 	ldrb.w	r3, [r0, #668]	@ 0x29c
 8002e80:	2b04      	cmp	r3, #4
 8002e82:	bf1e      	ittt	ne
 8002e84:	f890 329c 	ldrbne.w	r3, [r0, #668]	@ 0x29c
 8002e88:	b2db      	uxtbne	r3, r3
 8002e8a:	f880 329d 	strbne.w	r3, [r0, #669]	@ 0x29d
 8002e8e:	2304      	movs	r3, #4
 8002e90:	f880 329c 	strb.w	r3, [r0, #668]	@ 0x29c
 8002e94:	2000      	movs	r0, #0
 8002e96:	4770      	bx	lr

08002e98 <USBD_LL_Resume>:
 8002e98:	f890 329c 	ldrb.w	r3, [r0, #668]	@ 0x29c
 8002e9c:	2b04      	cmp	r3, #4
 8002e9e:	bf02      	ittt	eq
 8002ea0:	f890 329d 	ldrbeq.w	r3, [r0, #669]	@ 0x29d
 8002ea4:	b2db      	uxtbeq	r3, r3
 8002ea6:	f880 329c 	strbeq.w	r3, [r0, #668]	@ 0x29c
 8002eaa:	2000      	movs	r0, #0
 8002eac:	4770      	bx	lr

08002eae <USBD_LL_SOF>:
 8002eae:	b508      	push	{r3, lr}
 8002eb0:	f890 229c 	ldrb.w	r2, [r0, #668]	@ 0x29c
 8002eb4:	2a03      	cmp	r2, #3
 8002eb6:	d105      	bne.n	8002ec4 <USBD_LL_SOF+0x16>
 8002eb8:	f8d0 32b8 	ldr.w	r3, [r0, #696]	@ 0x2b8
 8002ebc:	b113      	cbz	r3, 8002ec4 <USBD_LL_SOF+0x16>
 8002ebe:	69db      	ldr	r3, [r3, #28]
 8002ec0:	b103      	cbz	r3, 8002ec4 <USBD_LL_SOF+0x16>
 8002ec2:	4798      	blx	r3
 8002ec4:	2000      	movs	r0, #0
 8002ec6:	bd08      	pop	{r3, pc}

08002ec8 <USBD_LL_IsoINIncomplete>:
 8002ec8:	f8d0 22d4 	ldr.w	r2, [r0, #724]	@ 0x2d4
 8002ecc:	32ae      	adds	r2, #174	@ 0xae
 8002ece:	b508      	push	{r3, lr}
 8002ed0:	f850 2022 	ldr.w	r2, [r0, r2, lsl #2]
 8002ed4:	b14a      	cbz	r2, 8002eea <USBD_LL_IsoINIncomplete+0x22>
 8002ed6:	f890 329c 	ldrb.w	r3, [r0, #668]	@ 0x29c
 8002eda:	2b03      	cmp	r3, #3
 8002edc:	d101      	bne.n	8002ee2 <USBD_LL_IsoINIncomplete+0x1a>
 8002ede:	6a13      	ldr	r3, [r2, #32]
 8002ee0:	b90b      	cbnz	r3, 8002ee6 <USBD_LL_IsoINIncomplete+0x1e>
 8002ee2:	2000      	movs	r0, #0
 8002ee4:	bd08      	pop	{r3, pc}
 8002ee6:	4798      	blx	r3
 8002ee8:	e7fb      	b.n	8002ee2 <USBD_LL_IsoINIncomplete+0x1a>
 8002eea:	2003      	movs	r0, #3
 8002eec:	e7fa      	b.n	8002ee4 <USBD_LL_IsoINIncomplete+0x1c>

08002eee <USBD_LL_IsoOUTIncomplete>:
 8002eee:	f8d0 22d4 	ldr.w	r2, [r0, #724]	@ 0x2d4
 8002ef2:	32ae      	adds	r2, #174	@ 0xae
 8002ef4:	b508      	push	{r3, lr}
 8002ef6:	f850 2022 	ldr.w	r2, [r0, r2, lsl #2]
 8002efa:	b14a      	cbz	r2, 8002f10 <USBD_LL_IsoOUTIncomplete+0x22>
 8002efc:	f890 329c 	ldrb.w	r3, [r0, #668]	@ 0x29c
 8002f00:	2b03      	cmp	r3, #3
 8002f02:	d101      	bne.n	8002f08 <USBD_LL_IsoOUTIncomplete+0x1a>
 8002f04:	6a53      	ldr	r3, [r2, #36]	@ 0x24
 8002f06:	b90b      	cbnz	r3, 8002f0c <USBD_LL_IsoOUTIncomplete+0x1e>
 8002f08:	2000      	movs	r0, #0
 8002f0a:	bd08      	pop	{r3, pc}
 8002f0c:	4798      	blx	r3
 8002f0e:	e7fb      	b.n	8002f08 <USBD_LL_IsoOUTIncomplete+0x1a>
 8002f10:	2003      	movs	r0, #3
 8002f12:	e7fa      	b.n	8002f0a <USBD_LL_IsoOUTIncomplete+0x1c>

08002f14 <USBD_LL_DevConnected>:
 8002f14:	2000      	movs	r0, #0
 8002f16:	4770      	bx	lr

08002f18 <USBD_LL_DevDisconnected>:
 8002f18:	2201      	movs	r2, #1
 8002f1a:	b508      	push	{r3, lr}
 8002f1c:	f880 229c 	strb.w	r2, [r0, #668]	@ 0x29c
 8002f20:	f8d0 22b8 	ldr.w	r2, [r0, #696]	@ 0x2b8
 8002f24:	b90a      	cbnz	r2, 8002f2a <USBD_LL_DevDisconnected+0x12>
 8002f26:	2000      	movs	r0, #0
 8002f28:	bd08      	pop	{r3, pc}
 8002f2a:	6852      	ldr	r2, [r2, #4]
 8002f2c:	7901      	ldrb	r1, [r0, #4]
 8002f2e:	4790      	blx	r2
 8002f30:	2800      	cmp	r0, #0
 8002f32:	d0f8      	beq.n	8002f26 <USBD_LL_DevDisconnected+0xe>
 8002f34:	2003      	movs	r0, #3
 8002f36:	e7f7      	b.n	8002f28 <USBD_LL_DevDisconnected+0x10>

08002f38 <USBD_CoreFindIF>:
 8002f38:	2000      	movs	r0, #0
 8002f3a:	4770      	bx	lr

08002f3c <USBD_CoreFindEP>:
 8002f3c:	2000      	movs	r0, #0
 8002f3e:	4770      	bx	lr

08002f40 <USBD_GetEpDesc>:
 8002f40:	b510      	push	{r4, lr}
 8002f42:	8842      	ldrh	r2, [r0, #2]
 8002f44:	7803      	ldrb	r3, [r0, #0]
 8002f46:	429a      	cmp	r2, r3
 8002f48:	d801      	bhi.n	8002f4e <USBD_GetEpDesc+0xe>
 8002f4a:	2000      	movs	r0, #0
 8002f4c:	bd10      	pop	{r4, pc}
 8002f4e:	7804      	ldrb	r4, [r0, #0]
 8002f50:	4420      	add	r0, r4
 8002f52:	4423      	add	r3, r4
 8002f54:	7844      	ldrb	r4, [r0, #1]
 8002f56:	2c05      	cmp	r4, #5
 8002f58:	b29b      	uxth	r3, r3
 8002f5a:	d1f4      	bne.n	8002f46 <USBD_GetEpDesc+0x6>
 8002f5c:	7884      	ldrb	r4, [r0, #2]
 8002f5e:	428c      	cmp	r4, r1
 8002f60:	d1f1      	bne.n	8002f46 <USBD_GetEpDesc+0x6>
 8002f62:	e7f3      	b.n	8002f4c <USBD_GetEpDesc+0xc>

08002f64 <USBD_CtlError.constprop.0>:
 8002f64:	b510      	push	{r4, lr}
 8002f66:	2180      	movs	r1, #128	@ 0x80
 8002f68:	4604      	mov	r4, r0
 8002f6a:	f001 fa48 	bl	80043fe <USBD_LL_StallEP>
 8002f6e:	4620      	mov	r0, r4
 8002f70:	2100      	movs	r1, #0
 8002f72:	e8bd 4010 	ldmia.w	sp!, {r4, lr}
 8002f76:	f001 ba42 	b.w	80043fe <USBD_LL_StallEP>
	...

08002f7c <USBD_StdDevReq>:
 8002f7c:	b573      	push	{r0, r1, r4, r5, r6, lr}
 8002f7e:	780b      	ldrb	r3, [r1, #0]
 8002f80:	f003 0360 	and.w	r3, r3, #96	@ 0x60
 8002f84:	2b20      	cmp	r3, #32
 8002f86:	4604      	mov	r4, r0
 8002f88:	460d      	mov	r5, r1
 8002f8a:	d012      	beq.n	8002fb2 <USBD_StdDevReq+0x36>
 8002f8c:	2b40      	cmp	r3, #64	@ 0x40
 8002f8e:	d010      	beq.n	8002fb2 <USBD_StdDevReq+0x36>
 8002f90:	2b00      	cmp	r3, #0
 8002f92:	d15a      	bne.n	800304a <USBD_StdDevReq+0xce>
 8002f94:	784b      	ldrb	r3, [r1, #1]
 8002f96:	2b09      	cmp	r3, #9
 8002f98:	d857      	bhi.n	800304a <USBD_StdDevReq+0xce>
 8002f9a:	e8df f013 	tbh	[pc, r3, lsl #1]
 8002f9e:	0104      	.short	0x0104
 8002fa0:	00560126 	.word	0x00560126
 8002fa4:	00560118 	.word	0x00560118
 8002fa8:	00160086 	.word	0x00160086
 8002fac:	00ee0056 	.word	0x00ee0056
 8002fb0:	00a2      	.short	0x00a2
 8002fb2:	f8d4 32d4 	ldr.w	r3, [r4, #724]	@ 0x2d4
 8002fb6:	33ae      	adds	r3, #174	@ 0xae
 8002fb8:	4629      	mov	r1, r5
 8002fba:	f854 3023 	ldr.w	r3, [r4, r3, lsl #2]
 8002fbe:	689b      	ldr	r3, [r3, #8]
 8002fc0:	4620      	mov	r0, r4
 8002fc2:	b002      	add	sp, #8
 8002fc4:	e8bd 4070 	ldmia.w	sp!, {r4, r5, r6, lr}
 8002fc8:	4718      	bx	r3
 8002fca:	2300      	movs	r3, #0
 8002fcc:	f8ad 3006 	strh.w	r3, [sp, #6]
 8002fd0:	884b      	ldrh	r3, [r1, #2]
 8002fd2:	0a1a      	lsrs	r2, r3, #8
 8002fd4:	3a01      	subs	r2, #1
 8002fd6:	2a06      	cmp	r2, #6
 8002fd8:	d837      	bhi.n	800304a <USBD_StdDevReq+0xce>
 8002fda:	e8df f002 	tbb	[pc, r2]
 8002fde:	1c04      	.short	0x1c04
 8002fe0:	51363629 	.word	0x51363629
 8002fe4:	5b          	.byte	0x5b
 8002fe5:	00          	.byte	0x00
 8002fe6:	f8d0 32b4 	ldr.w	r3, [r0, #692]	@ 0x2b4
 8002fea:	681b      	ldr	r3, [r3, #0]
 8002fec:	7c20      	ldrb	r0, [r4, #16]
 8002fee:	f10d 0106 	add.w	r1, sp, #6
 8002ff2:	4798      	blx	r3
 8002ff4:	88ea      	ldrh	r2, [r5, #6]
 8002ff6:	2a00      	cmp	r2, #0
 8002ff8:	f000 80a2 	beq.w	8003140 <USBD_StdDevReq+0x1c4>
 8002ffc:	f8bd 3006 	ldrh.w	r3, [sp, #6]
 8003000:	b31b      	cbz	r3, 800304a <USBD_StdDevReq+0xce>
 8003002:	429a      	cmp	r2, r3
 8003004:	bf28      	it	cs
 8003006:	461a      	movcs	r2, r3
 8003008:	f8ad 2006 	strh.w	r2, [sp, #6]
 800300c:	4601      	mov	r1, r0
 800300e:	4620      	mov	r0, r4
 8003010:	f000 f9f6 	bl	8003400 <USBD_CtlSendData>
 8003014:	e01c      	b.n	8003050 <USBD_StdDevReq+0xd4>
 8003016:	7c02      	ldrb	r2, [r0, #16]
 8003018:	f8d0 32b8 	ldr.w	r3, [r0, #696]	@ 0x2b8
 800301c:	b932      	cbnz	r2, 800302c <USBD_StdDevReq+0xb0>
 800301e:	6a9b      	ldr	r3, [r3, #40]	@ 0x28
 8003020:	f10d 0006 	add.w	r0, sp, #6
 8003024:	4798      	blx	r3
 8003026:	2302      	movs	r3, #2
 8003028:	7043      	strb	r3, [r0, #1]
 800302a:	e7e3      	b.n	8002ff4 <USBD_StdDevReq+0x78>
 800302c:	6adb      	ldr	r3, [r3, #44]	@ 0x2c
 800302e:	e7f7      	b.n	8003020 <USBD_StdDevReq+0xa4>
 8003030:	b2db      	uxtb	r3, r3
 8003032:	2b05      	cmp	r3, #5
 8003034:	d809      	bhi.n	800304a <USBD_StdDevReq+0xce>
 8003036:	e8df f003 	tbb	[pc, r3]
 800303a:	0f03      	.short	0x0f03
 800303c:	1f1b1713 	.word	0x1f1b1713
 8003040:	f8d0 32b4 	ldr.w	r3, [r0, #692]	@ 0x2b4
 8003044:	685b      	ldr	r3, [r3, #4]
 8003046:	2b00      	cmp	r3, #0
 8003048:	d1d0      	bne.n	8002fec <USBD_StdDevReq+0x70>
 800304a:	4620      	mov	r0, r4
 800304c:	f7ff ff8a 	bl	8002f64 <USBD_CtlError.constprop.0>
 8003050:	2500      	movs	r5, #0
 8003052:	4628      	mov	r0, r5
 8003054:	b002      	add	sp, #8
 8003056:	bd70      	pop	{r4, r5, r6, pc}
 8003058:	f8d0 32b4 	ldr.w	r3, [r0, #692]	@ 0x2b4
 800305c:	689b      	ldr	r3, [r3, #8]
 800305e:	e7f2      	b.n	8003046 <USBD_StdDevReq+0xca>
 8003060:	f8d0 32b4 	ldr.w	r3, [r0, #692]	@ 0x2b4
 8003064:	68db      	ldr	r3, [r3, #12]
 8003066:	e7ee      	b.n	8003046 <USBD_StdDevReq+0xca>
 8003068:	f8d0 32b4 	ldr.w	r3, [r0, #692]	@ 0x2b4
 800306c:	691b      	ldr	r3, [r3, #16]
 800306e:	e7ea      	b.n	8003046 <USBD_StdDevReq+0xca>
 8003070:	f8d0 32b4 	ldr.w	r3, [r0, #692]	@ 0x2b4
 8003074:	695b      	ldr	r3, [r3, #20]
 8003076:	e7e6      	b.n	8003046 <USBD_StdDevReq+0xca>
 8003078:	f8d0 32b4 	ldr.w	r3, [r0, #692]	@ 0x2b4
 800307c:	699b      	ldr	r3, [r3, #24]
 800307e:	e7e2      	b.n	8003046 <USBD_StdDevReq+0xca>
 8003080:	7c03      	ldrb	r3, [r0, #16]
 8003082:	2b00      	cmp	r3, #0
 8003084:	d1e1      	bne.n	800304a <USBD_StdDevReq+0xce>
 8003086:	f8d0 32b8 	ldr.w	r3, [r0, #696]	@ 0x2b8
 800308a:	f10d 0006 	add.w	r0, sp, #6
 800308e:	6b5b      	ldr	r3, [r3, #52]	@ 0x34
 8003090:	4798      	blx	r3
 8003092:	e7af      	b.n	8002ff4 <USBD_StdDevReq+0x78>
 8003094:	7c03      	ldrb	r3, [r0, #16]
 8003096:	2b00      	cmp	r3, #0
 8003098:	d1d7      	bne.n	800304a <USBD_StdDevReq+0xce>
 800309a:	f8d0 32b8 	ldr.w	r3, [r0, #696]	@ 0x2b8
 800309e:	f10d 0006 	add.w	r0, sp, #6
 80030a2:	6b1b      	ldr	r3, [r3, #48]	@ 0x30
 80030a4:	4798      	blx	r3
 80030a6:	2307      	movs	r3, #7
 80030a8:	e7be      	b.n	8003028 <USBD_StdDevReq+0xac>
 80030aa:	888b      	ldrh	r3, [r1, #4]
 80030ac:	2b00      	cmp	r3, #0
 80030ae:	d1cc      	bne.n	800304a <USBD_StdDevReq+0xce>
 80030b0:	88cb      	ldrh	r3, [r1, #6]
 80030b2:	2b00      	cmp	r3, #0
 80030b4:	d1c9      	bne.n	800304a <USBD_StdDevReq+0xce>
 80030b6:	884d      	ldrh	r5, [r1, #2]
 80030b8:	2d7f      	cmp	r5, #127	@ 0x7f
 80030ba:	d8c6      	bhi.n	800304a <USBD_StdDevReq+0xce>
 80030bc:	f890 329c 	ldrb.w	r3, [r0, #668]	@ 0x29c
 80030c0:	2b03      	cmp	r3, #3
 80030c2:	d0c2      	beq.n	800304a <USBD_StdDevReq+0xce>
 80030c4:	b2e9      	uxtb	r1, r5
 80030c6:	f880 129e 	strb.w	r1, [r0, #670]	@ 0x29e
 80030ca:	f001 f9aa 	bl	8004422 <USBD_LL_SetUSBAddress>
 80030ce:	4620      	mov	r0, r4
 80030d0:	f000 f9c0 	bl	8003454 <USBD_CtlSendStatus>
 80030d4:	b11d      	cbz	r5, 80030de <USBD_StdDevReq+0x162>
 80030d6:	2302      	movs	r3, #2
 80030d8:	f884 329c 	strb.w	r3, [r4, #668]	@ 0x29c
 80030dc:	e7b8      	b.n	8003050 <USBD_StdDevReq+0xd4>
 80030de:	2301      	movs	r3, #1
 80030e0:	e7fa      	b.n	80030d8 <USBD_StdDevReq+0x15c>
 80030e2:	7889      	ldrb	r1, [r1, #2]
 80030e4:	4d47      	ldr	r5, [pc, #284]	@ (8003204 <USBD_StdDevReq+0x288>)
 80030e6:	2901      	cmp	r1, #1
 80030e8:	7029      	strb	r1, [r5, #0]
 80030ea:	d903      	bls.n	80030f4 <USBD_StdDevReq+0x178>
 80030ec:	f7ff ff3a 	bl	8002f64 <USBD_CtlError.constprop.0>
 80030f0:	2503      	movs	r5, #3
 80030f2:	e7ae      	b.n	8003052 <USBD_StdDevReq+0xd6>
 80030f4:	f890 329c 	ldrb.w	r3, [r0, #668]	@ 0x29c
 80030f8:	2b02      	cmp	r3, #2
 80030fa:	b2de      	uxtb	r6, r3
 80030fc:	d008      	beq.n	8003110 <USBD_StdDevReq+0x194>
 80030fe:	2e03      	cmp	r6, #3
 8003100:	d017      	beq.n	8003132 <USBD_StdDevReq+0x1b6>
 8003102:	f7ff ff2f 	bl	8002f64 <USBD_CtlError.constprop.0>
 8003106:	7829      	ldrb	r1, [r5, #0]
 8003108:	4620      	mov	r0, r4
 800310a:	f7ff fdc4 	bl	8002c96 <USBD_ClrClassConfig>
 800310e:	e7ef      	b.n	80030f0 <USBD_StdDevReq+0x174>
 8003110:	b1b1      	cbz	r1, 8003140 <USBD_StdDevReq+0x1c4>
 8003112:	2101      	movs	r1, #1
 8003114:	6041      	str	r1, [r0, #4]
 8003116:	f7ff fdb7 	bl	8002c88 <USBD_SetClassConfig>
 800311a:	4605      	mov	r5, r0
 800311c:	4620      	mov	r0, r4
 800311e:	b125      	cbz	r5, 800312a <USBD_StdDevReq+0x1ae>
 8003120:	f7ff ff20 	bl	8002f64 <USBD_CtlError.constprop.0>
 8003124:	f884 629c 	strb.w	r6, [r4, #668]	@ 0x29c
 8003128:	e793      	b.n	8003052 <USBD_StdDevReq+0xd6>
 800312a:	f000 f993 	bl	8003454 <USBD_CtlSendStatus>
 800312e:	2303      	movs	r3, #3
 8003130:	e7d2      	b.n	80030d8 <USBD_StdDevReq+0x15c>
 8003132:	b949      	cbnz	r1, 8003148 <USBD_StdDevReq+0x1cc>
 8003134:	2302      	movs	r3, #2
 8003136:	f880 329c 	strb.w	r3, [r0, #668]	@ 0x29c
 800313a:	6041      	str	r1, [r0, #4]
 800313c:	f7ff fdab 	bl	8002c96 <USBD_ClrClassConfig>
 8003140:	4620      	mov	r0, r4
 8003142:	f000 f987 	bl	8003454 <USBD_CtlSendStatus>
 8003146:	e783      	b.n	8003050 <USBD_StdDevReq+0xd4>
 8003148:	6841      	ldr	r1, [r0, #4]
 800314a:	2901      	cmp	r1, #1
 800314c:	d0f8      	beq.n	8003140 <USBD_StdDevReq+0x1c4>
 800314e:	b2c9      	uxtb	r1, r1
 8003150:	f7ff fda1 	bl	8002c96 <USBD_ClrClassConfig>
 8003154:	7829      	ldrb	r1, [r5, #0]
 8003156:	6061      	str	r1, [r4, #4]
 8003158:	4620      	mov	r0, r4
 800315a:	f7ff fd95 	bl	8002c88 <USBD_SetClassConfig>
 800315e:	4605      	mov	r5, r0
 8003160:	2800      	cmp	r0, #0
 8003162:	d0ed      	beq.n	8003140 <USBD_StdDevReq+0x1c4>
 8003164:	4620      	mov	r0, r4
 8003166:	f7ff fefd 	bl	8002f64 <USBD_CtlError.constprop.0>
 800316a:	7921      	ldrb	r1, [r4, #4]
 800316c:	4620      	mov	r0, r4
 800316e:	f7ff fd92 	bl	8002c96 <USBD_ClrClassConfig>
 8003172:	2302      	movs	r3, #2
 8003174:	f884 329c 	strb.w	r3, [r4, #668]	@ 0x29c
 8003178:	e76b      	b.n	8003052 <USBD_StdDevReq+0xd6>
 800317a:	88ca      	ldrh	r2, [r1, #6]
 800317c:	2a01      	cmp	r2, #1
 800317e:	f47f af64 	bne.w	800304a <USBD_StdDevReq+0xce>
 8003182:	f890 129c 	ldrb.w	r1, [r0, #668]	@ 0x29c
 8003186:	2902      	cmp	r1, #2
 8003188:	b2cb      	uxtb	r3, r1
 800318a:	d807      	bhi.n	800319c <USBD_StdDevReq+0x220>
 800318c:	2b00      	cmp	r3, #0
 800318e:	f43f af5c 	beq.w	800304a <USBD_StdDevReq+0xce>
 8003192:	4601      	mov	r1, r0
 8003194:	2300      	movs	r3, #0
 8003196:	f841 3f08 	str.w	r3, [r1, #8]!
 800319a:	e738      	b.n	800300e <USBD_StdDevReq+0x92>
 800319c:	2b03      	cmp	r3, #3
 800319e:	f47f af54 	bne.w	800304a <USBD_StdDevReq+0xce>
 80031a2:	1d01      	adds	r1, r0, #4
 80031a4:	e733      	b.n	800300e <USBD_StdDevReq+0x92>
 80031a6:	f890 329c 	ldrb.w	r3, [r0, #668]	@ 0x29c
 80031aa:	3b01      	subs	r3, #1
 80031ac:	2b02      	cmp	r3, #2
 80031ae:	f63f af4c 	bhi.w	800304a <USBD_StdDevReq+0xce>
 80031b2:	88ca      	ldrh	r2, [r1, #6]
 80031b4:	2a02      	cmp	r2, #2
 80031b6:	f47f af48 	bne.w	800304a <USBD_StdDevReq+0xce>
 80031ba:	f8d0 32a4 	ldr.w	r3, [r0, #676]	@ 0x2a4
 80031be:	4601      	mov	r1, r0
 80031c0:	2b00      	cmp	r3, #0
 80031c2:	bf0c      	ite	eq
 80031c4:	2301      	moveq	r3, #1
 80031c6:	2303      	movne	r3, #3
 80031c8:	f841 3f0c 	str.w	r3, [r1, #12]!
 80031cc:	e71f      	b.n	800300e <USBD_StdDevReq+0x92>
 80031ce:	884b      	ldrh	r3, [r1, #2]
 80031d0:	2b01      	cmp	r3, #1
 80031d2:	d102      	bne.n	80031da <USBD_StdDevReq+0x25e>
 80031d4:	f8c4 32a4 	str.w	r3, [r4, #676]	@ 0x2a4
 80031d8:	e7b2      	b.n	8003140 <USBD_StdDevReq+0x1c4>
 80031da:	2b02      	cmp	r3, #2
 80031dc:	f47f af35 	bne.w	800304a <USBD_StdDevReq+0xce>
 80031e0:	888b      	ldrh	r3, [r1, #4]
 80031e2:	0a1b      	lsrs	r3, r3, #8
 80031e4:	f880 32a0 	strb.w	r3, [r0, #672]	@ 0x2a0
 80031e8:	e7aa      	b.n	8003140 <USBD_StdDevReq+0x1c4>
 80031ea:	f890 329c 	ldrb.w	r3, [r0, #668]	@ 0x29c
 80031ee:	3b01      	subs	r3, #1
 80031f0:	2b02      	cmp	r3, #2
 80031f2:	f63f af2a 	bhi.w	800304a <USBD_StdDevReq+0xce>
 80031f6:	884b      	ldrh	r3, [r1, #2]
 80031f8:	2b01      	cmp	r3, #1
 80031fa:	f47f af29 	bne.w	8003050 <USBD_StdDevReq+0xd4>
 80031fe:	2300      	movs	r3, #0
 8003200:	e7e8      	b.n	80031d4 <USBD_StdDevReq+0x258>
 8003202:	bf00      	nop
 8003204:	2000046c 	.word	0x2000046c

08003208 <USBD_StdItfReq>:
 8003208:	b538      	push	{r3, r4, r5, lr}
 800320a:	780b      	ldrb	r3, [r1, #0]
 800320c:	f003 0260 	and.w	r2, r3, #96	@ 0x60
 8003210:	065b      	lsls	r3, r3, #25
 8003212:	4604      	mov	r4, r0
 8003214:	460d      	mov	r5, r1
 8003216:	d501      	bpl.n	800321c <USBD_StdItfReq+0x14>
 8003218:	2a40      	cmp	r2, #64	@ 0x40
 800321a:	d11e      	bne.n	800325a <USBD_StdItfReq+0x52>
 800321c:	f894 329c 	ldrb.w	r3, [r4, #668]	@ 0x29c
 8003220:	3b01      	subs	r3, #1
 8003222:	2b02      	cmp	r3, #2
 8003224:	d819      	bhi.n	800325a <USBD_StdItfReq+0x52>
 8003226:	7929      	ldrb	r1, [r5, #4]
 8003228:	2901      	cmp	r1, #1
 800322a:	4620      	mov	r0, r4
 800322c:	d816      	bhi.n	800325c <USBD_StdItfReq+0x54>
 800322e:	f7ff fe83 	bl	8002f38 <USBD_CoreFindIF>
 8003232:	b980      	cbnz	r0, 8003256 <USBD_StdItfReq+0x4e>
 8003234:	f8d4 32b8 	ldr.w	r3, [r4, #696]	@ 0x2b8
 8003238:	689b      	ldr	r3, [r3, #8]
 800323a:	b163      	cbz	r3, 8003256 <USBD_StdItfReq+0x4e>
 800323c:	f8c4 02d4 	str.w	r0, [r4, #724]	@ 0x2d4
 8003240:	4629      	mov	r1, r5
 8003242:	4620      	mov	r0, r4
 8003244:	4798      	blx	r3
 8003246:	88eb      	ldrh	r3, [r5, #6]
 8003248:	b923      	cbnz	r3, 8003254 <USBD_StdItfReq+0x4c>
 800324a:	b918      	cbnz	r0, 8003254 <USBD_StdItfReq+0x4c>
 800324c:	4620      	mov	r0, r4
 800324e:	f000 f901 	bl	8003454 <USBD_CtlSendStatus>
 8003252:	2000      	movs	r0, #0
 8003254:	bd38      	pop	{r3, r4, r5, pc}
 8003256:	2003      	movs	r0, #3
 8003258:	e7f5      	b.n	8003246 <USBD_StdItfReq+0x3e>
 800325a:	4620      	mov	r0, r4
 800325c:	f7ff fe82 	bl	8002f64 <USBD_CtlError.constprop.0>
 8003260:	e7f7      	b.n	8003252 <USBD_StdItfReq+0x4a>

08003262 <USBD_StdEPReq>:
 8003262:	b570      	push	{r4, r5, r6, lr}
 8003264:	780b      	ldrb	r3, [r1, #0]
 8003266:	888a      	ldrh	r2, [r1, #4]
 8003268:	790e      	ldrb	r6, [r1, #4]
 800326a:	f003 0360 	and.w	r3, r3, #96	@ 0x60
 800326e:	2b20      	cmp	r3, #32
 8003270:	4604      	mov	r4, r0
 8003272:	460d      	mov	r5, r1
 8003274:	d053      	beq.n	800331e <USBD_StdEPReq+0xbc>
 8003276:	2b40      	cmp	r3, #64	@ 0x40
 8003278:	d051      	beq.n	800331e <USBD_StdEPReq+0xbc>
 800327a:	bb63      	cbnz	r3, 80032d6 <USBD_StdEPReq+0x74>
 800327c:	784b      	ldrb	r3, [r1, #1]
 800327e:	2b01      	cmp	r3, #1
 8003280:	d03b      	beq.n	80032fa <USBD_StdEPReq+0x98>
 8003282:	2b03      	cmp	r3, #3
 8003284:	d020      	beq.n	80032c8 <USBD_StdEPReq+0x66>
 8003286:	bb33      	cbnz	r3, 80032d6 <USBD_StdEPReq+0x74>
 8003288:	f890 329c 	ldrb.w	r3, [r0, #668]	@ 0x29c
 800328c:	2b02      	cmp	r3, #2
 800328e:	b2d9      	uxtb	r1, r3
 8003290:	d061      	beq.n	8003356 <USBD_StdEPReq+0xf4>
 8003292:	2903      	cmp	r1, #3
 8003294:	d11f      	bne.n	80032d6 <USBD_StdEPReq+0x74>
 8003296:	f006 030f 	and.w	r3, r6, #15
 800329a:	f012 0f80 	tst.w	r2, #128	@ 0x80
 800329e:	f04f 0214 	mov.w	r2, #20
 80032a2:	fb02 0303 	mla	r3, r2, r3, r0
 80032a6:	d065      	beq.n	8003374 <USBD_StdEPReq+0x112>
 80032a8:	8c9b      	ldrh	r3, [r3, #36]	@ 0x24
 80032aa:	b1a3      	cbz	r3, 80032d6 <USBD_StdEPReq+0x74>
 80032ac:	f006 057f 	and.w	r5, r6, #127	@ 0x7f
 80032b0:	3501      	adds	r5, #1
 80032b2:	eb05 0585 	add.w	r5, r5, r5, lsl #2
 80032b6:	eb00 0585 	add.w	r5, r0, r5, lsl #2
 80032ba:	0673      	lsls	r3, r6, #25
 80032bc:	d166      	bne.n	800338c <USBD_StdEPReq+0x12a>
 80032be:	2300      	movs	r3, #0
 80032c0:	602b      	str	r3, [r5, #0]
 80032c2:	2202      	movs	r2, #2
 80032c4:	4629      	mov	r1, r5
 80032c6:	e051      	b.n	800336c <USBD_StdEPReq+0x10a>
 80032c8:	f890 329c 	ldrb.w	r3, [r0, #668]	@ 0x29c
 80032cc:	2b02      	cmp	r3, #2
 80032ce:	b2da      	uxtb	r2, r3
 80032d0:	d037      	beq.n	8003342 <USBD_StdEPReq+0xe0>
 80032d2:	2a03      	cmp	r2, #3
 80032d4:	d003      	beq.n	80032de <USBD_StdEPReq+0x7c>
 80032d6:	4620      	mov	r0, r4
 80032d8:	f7ff fe44 	bl	8002f64 <USBD_CtlError.constprop.0>
 80032dc:	e00b      	b.n	80032f6 <USBD_StdEPReq+0x94>
 80032de:	884b      	ldrh	r3, [r1, #2]
 80032e0:	b933      	cbnz	r3, 80032f0 <USBD_StdEPReq+0x8e>
 80032e2:	0671      	lsls	r1, r6, #25
 80032e4:	d004      	beq.n	80032f0 <USBD_StdEPReq+0x8e>
 80032e6:	88eb      	ldrh	r3, [r5, #6]
 80032e8:	b913      	cbnz	r3, 80032f0 <USBD_StdEPReq+0x8e>
 80032ea:	4631      	mov	r1, r6
 80032ec:	f001 f887 	bl	80043fe <USBD_LL_StallEP>
 80032f0:	4620      	mov	r0, r4
 80032f2:	f000 f8af 	bl	8003454 <USBD_CtlSendStatus>
 80032f6:	2000      	movs	r0, #0
 80032f8:	bd70      	pop	{r4, r5, r6, pc}
 80032fa:	f890 329c 	ldrb.w	r3, [r0, #668]	@ 0x29c
 80032fe:	2b02      	cmp	r3, #2
 8003300:	b2da      	uxtb	r2, r3
 8003302:	d01e      	beq.n	8003342 <USBD_StdEPReq+0xe0>
 8003304:	2a03      	cmp	r2, #3
 8003306:	d1e6      	bne.n	80032d6 <USBD_StdEPReq+0x74>
 8003308:	884b      	ldrh	r3, [r1, #2]
 800330a:	2b00      	cmp	r3, #0
 800330c:	d1f3      	bne.n	80032f6 <USBD_StdEPReq+0x94>
 800330e:	0673      	lsls	r3, r6, #25
 8003310:	d002      	beq.n	8003318 <USBD_StdEPReq+0xb6>
 8003312:	4631      	mov	r1, r6
 8003314:	f001 f87c 	bl	8004410 <USBD_LL_ClearStallEP>
 8003318:	4620      	mov	r0, r4
 800331a:	f000 f89b 	bl	8003454 <USBD_CtlSendStatus>
 800331e:	4631      	mov	r1, r6
 8003320:	4620      	mov	r0, r4
 8003322:	f7ff fe0b 	bl	8002f3c <USBD_CoreFindEP>
 8003326:	2800      	cmp	r0, #0
 8003328:	d1e5      	bne.n	80032f6 <USBD_StdEPReq+0x94>
 800332a:	f8d4 32b8 	ldr.w	r3, [r4, #696]	@ 0x2b8
 800332e:	f8c4 02d4 	str.w	r0, [r4, #724]	@ 0x2d4
 8003332:	689b      	ldr	r3, [r3, #8]
 8003334:	2b00      	cmp	r3, #0
 8003336:	d0de      	beq.n	80032f6 <USBD_StdEPReq+0x94>
 8003338:	4629      	mov	r1, r5
 800333a:	4620      	mov	r0, r4
 800333c:	e8bd 4070 	ldmia.w	sp!, {r4, r5, r6, lr}
 8003340:	4718      	bx	r3
 8003342:	0672      	lsls	r2, r6, #25
 8003344:	d0c7      	beq.n	80032d6 <USBD_StdEPReq+0x74>
 8003346:	4631      	mov	r1, r6
 8003348:	f001 f859 	bl	80043fe <USBD_LL_StallEP>
 800334c:	2180      	movs	r1, #128	@ 0x80
 800334e:	4620      	mov	r0, r4
 8003350:	f001 f855 	bl	80043fe <USBD_LL_StallEP>
 8003354:	e7cf      	b.n	80032f6 <USBD_StdEPReq+0x94>
 8003356:	0671      	lsls	r1, r6, #25
 8003358:	d1bd      	bne.n	80032d6 <USBD_StdEPReq+0x74>
 800335a:	0612      	lsls	r2, r2, #24
 800335c:	bf4c      	ite	mi
 800335e:	f100 0114 	addmi.w	r1, r0, #20
 8003362:	f500 71aa 	addpl.w	r1, r0, #340	@ 0x154
 8003366:	2300      	movs	r3, #0
 8003368:	600b      	str	r3, [r1, #0]
 800336a:	2202      	movs	r2, #2
 800336c:	4620      	mov	r0, r4
 800336e:	f000 f847 	bl	8003400 <USBD_CtlSendData>
 8003372:	e7c0      	b.n	80032f6 <USBD_StdEPReq+0x94>
 8003374:	f8b3 3164 	ldrh.w	r3, [r3, #356]	@ 0x164
 8003378:	2b00      	cmp	r3, #0
 800337a:	d0ac      	beq.n	80032d6 <USBD_StdEPReq+0x74>
 800337c:	f006 057f 	and.w	r5, r6, #127	@ 0x7f
 8003380:	2314      	movs	r3, #20
 8003382:	fb03 0505 	mla	r5, r3, r5, r0
 8003386:	f505 75aa 	add.w	r5, r5, #340	@ 0x154
 800338a:	e796      	b.n	80032ba <USBD_StdEPReq+0x58>
 800338c:	4631      	mov	r1, r6
 800338e:	4620      	mov	r0, r4
 8003390:	f000 fff6 	bl	8004380 <USBD_LL_IsStallEP>
 8003394:	2800      	cmp	r0, #0
 8003396:	d092      	beq.n	80032be <USBD_StdEPReq+0x5c>
 8003398:	2301      	movs	r3, #1
 800339a:	e791      	b.n	80032c0 <USBD_StdEPReq+0x5e>

0800339c <USBD_ParseSetupRequest>:
 800339c:	780b      	ldrb	r3, [r1, #0]
 800339e:	7003      	strb	r3, [r0, #0]
 80033a0:	784b      	ldrb	r3, [r1, #1]
 80033a2:	7043      	strb	r3, [r0, #1]
 80033a4:	884b      	ldrh	r3, [r1, #2]
 80033a6:	8043      	strh	r3, [r0, #2]
 80033a8:	888b      	ldrh	r3, [r1, #4]
 80033aa:	8083      	strh	r3, [r0, #4]
 80033ac:	88cb      	ldrh	r3, [r1, #6]
 80033ae:	80c3      	strh	r3, [r0, #6]
 80033b0:	4770      	bx	lr

080033b2 <USBD_CtlError>:
 80033b2:	b510      	push	{r4, lr}
 80033b4:	2180      	movs	r1, #128	@ 0x80
 80033b6:	4604      	mov	r4, r0
 80033b8:	f001 f821 	bl	80043fe <USBD_LL_StallEP>
 80033bc:	4620      	mov	r0, r4
 80033be:	2100      	movs	r1, #0
 80033c0:	e8bd 4010 	ldmia.w	sp!, {r4, lr}
 80033c4:	f001 b81b 	b.w	80043fe <USBD_LL_StallEP>

080033c8 <USBD_GetString>:
 80033c8:	b570      	push	{r4, r5, r6, lr}
 80033ca:	460d      	mov	r5, r1
 80033cc:	4616      	mov	r6, r2
 80033ce:	4604      	mov	r4, r0
 80033d0:	b170      	cbz	r0, 80033f0 <USBD_GetString+0x28>
 80033d2:	f7fc ff05 	bl	80001e0 <strlen>
 80033d6:	b2c3      	uxtb	r3, r0
 80033d8:	3301      	adds	r3, #1
 80033da:	005b      	lsls	r3, r3, #1
 80033dc:	8033      	strh	r3, [r6, #0]
 80033de:	702b      	strb	r3, [r5, #0]
 80033e0:	2303      	movs	r3, #3
 80033e2:	706b      	strb	r3, [r5, #1]
 80033e4:	3c01      	subs	r4, #1
 80033e6:	2302      	movs	r3, #2
 80033e8:	2100      	movs	r1, #0
 80033ea:	f814 2f01 	ldrb.w	r2, [r4, #1]!
 80033ee:	b902      	cbnz	r2, 80033f2 <USBD_GetString+0x2a>
 80033f0:	bd70      	pop	{r4, r5, r6, pc}
 80033f2:	54ea      	strb	r2, [r5, r3]
 80033f4:	1c5a      	adds	r2, r3, #1
 80033f6:	b2d2      	uxtb	r2, r2
 80033f8:	3302      	adds	r3, #2
 80033fa:	54a9      	strb	r1, [r5, r2]
 80033fc:	b2db      	uxtb	r3, r3
 80033fe:	e7f4      	b.n	80033ea <USBD_GetString+0x22>

08003400 <USBD_CtlSendData>:
 8003400:	b510      	push	{r4, lr}
 8003402:	4613      	mov	r3, r2
 8003404:	2202      	movs	r2, #2
 8003406:	e9c0 3306 	strd	r3, r3, [r0, #24]
 800340a:	f8c0 2294 	str.w	r2, [r0, #660]	@ 0x294
 800340e:	460a      	mov	r2, r1
 8003410:	2100      	movs	r1, #0
 8003412:	f001 f80f 	bl	8004434 <USBD_LL_Transmit>
 8003416:	2000      	movs	r0, #0
 8003418:	bd10      	pop	{r4, pc}

0800341a <USBD_CtlContinueSendData>:
 800341a:	b508      	push	{r3, lr}
 800341c:	4613      	mov	r3, r2
 800341e:	460a      	mov	r2, r1
 8003420:	2100      	movs	r1, #0
 8003422:	f001 f807 	bl	8004434 <USBD_LL_Transmit>
 8003426:	2000      	movs	r0, #0
 8003428:	bd08      	pop	{r3, pc}

0800342a <USBD_CtlPrepareRx>:
 800342a:	b510      	push	{r4, lr}
 800342c:	4613      	mov	r3, r2
 800342e:	2203      	movs	r2, #3
 8003430:	e9c0 3356 	strd	r3, r3, [r0, #344]	@ 0x158
 8003434:	f8c0 2294 	str.w	r2, [r0, #660]	@ 0x294
 8003438:	460a      	mov	r2, r1
 800343a:	2100      	movs	r1, #0
 800343c:	f001 f803 	bl	8004446 <USBD_LL_PrepareReceive>
 8003440:	2000      	movs	r0, #0
 8003442:	bd10      	pop	{r4, pc}

08003444 <USBD_CtlContinueRx>:
 8003444:	b508      	push	{r3, lr}
 8003446:	4613      	mov	r3, r2
 8003448:	460a      	mov	r2, r1
 800344a:	2100      	movs	r1, #0
 800344c:	f000 fffb 	bl	8004446 <USBD_LL_PrepareReceive>
 8003450:	2000      	movs	r0, #0
 8003452:	bd08      	pop	{r3, pc}

08003454 <USBD_CtlSendStatus>:
 8003454:	b508      	push	{r3, lr}
 8003456:	2204      	movs	r2, #4
 8003458:	2300      	movs	r3, #0
 800345a:	f8c0 2294 	str.w	r2, [r0, #660]	@ 0x294
 800345e:	4619      	mov	r1, r3
 8003460:	461a      	mov	r2, r3
 8003462:	f000 ffe7 	bl	8004434 <USBD_LL_Transmit>
 8003466:	2000      	movs	r0, #0
 8003468:	bd08      	pop	{r3, pc}

0800346a <USBD_CtlReceiveStatus>:
 800346a:	b508      	push	{r3, lr}
 800346c:	2205      	movs	r2, #5
 800346e:	2300      	movs	r3, #0
 8003470:	f8c0 2294 	str.w	r2, [r0, #660]	@ 0x294
 8003474:	4619      	mov	r1, r3
 8003476:	461a      	mov	r2, r3
 8003478:	f000 ffe5 	bl	8004446 <USBD_LL_PrepareReceive>
 800347c:	2000      	movs	r0, #0
 800347e:	bd08      	pop	{r3, pc}

08003480 <vListInitialise>:
 8003480:	f100 0308 	add.w	r3, r0, #8
 8003484:	f04f 32ff 	mov.w	r2, #4294967295	@ 0xffffffff
 8003488:	e9c0 2302 	strd	r2, r3, [r0, #8]
 800348c:	6043      	str	r3, [r0, #4]
 800348e:	6103      	str	r3, [r0, #16]
 8003490:	2300      	movs	r3, #0
 8003492:	6003      	str	r3, [r0, #0]
 8003494:	4770      	bx	lr

08003496 <vListInitialiseItem>:
 8003496:	2300      	movs	r3, #0
 8003498:	6103      	str	r3, [r0, #16]
 800349a:	4770      	bx	lr

0800349c <vListInsertEnd>:
 800349c:	6843      	ldr	r3, [r0, #4]
 800349e:	604b      	str	r3, [r1, #4]
 80034a0:	689a      	ldr	r2, [r3, #8]
 80034a2:	608a      	str	r2, [r1, #8]
 80034a4:	6051      	str	r1, [r2, #4]
 80034a6:	6099      	str	r1, [r3, #8]
 80034a8:	6803      	ldr	r3, [r0, #0]
 80034aa:	6108      	str	r0, [r1, #16]
 80034ac:	3301      	adds	r3, #1
 80034ae:	6003      	str	r3, [r0, #0]
 80034b0:	4770      	bx	lr

080034b2 <uxListRemove>:
 80034b2:	e9d0 1201 	ldrd	r1, r2, [r0, #4]
 80034b6:	6903      	ldr	r3, [r0, #16]
 80034b8:	608a      	str	r2, [r1, #8]
 80034ba:	6051      	str	r1, [r2, #4]
 80034bc:	6859      	ldr	r1, [r3, #4]
 80034be:	4281      	cmp	r1, r0
 80034c0:	bf08      	it	eq
 80034c2:	605a      	streq	r2, [r3, #4]
 80034c4:	2200      	movs	r2, #0
 80034c6:	6102      	str	r2, [r0, #16]
 80034c8:	681a      	ldr	r2, [r3, #0]
 80034ca:	3a01      	subs	r2, #1
 80034cc:	601a      	str	r2, [r3, #0]
 80034ce:	6818      	ldr	r0, [r3, #0]
 80034d0:	4770      	bx	lr
	...

080034d4 <prvAddNewTaskToReadyList>:
 80034d4:	e92d 41f0 	stmdb	sp!, {r4, r5, r6, r7, r8, lr}
 80034d8:	4604      	mov	r4, r0
 80034da:	f000 fb9b 	bl	8003c14 <vPortEnterCritical>
 80034de:	4b2f      	ldr	r3, [pc, #188]	@ (800359c <prvAddNewTaskToReadyList+0xc8>)
 80034e0:	4e2f      	ldr	r6, [pc, #188]	@ (80035a0 <prvAddNewTaskToReadyList+0xcc>)
 80034e2:	681a      	ldr	r2, [r3, #0]
 80034e4:	4f2f      	ldr	r7, [pc, #188]	@ (80035a4 <prvAddNewTaskToReadyList+0xd0>)
 80034e6:	3201      	adds	r2, #1
 80034e8:	601a      	str	r2, [r3, #0]
 80034ea:	6835      	ldr	r5, [r6, #0]
 80034ec:	2d00      	cmp	r5, #0
 80034ee:	d14a      	bne.n	8003586 <prvAddNewTaskToReadyList+0xb2>
 80034f0:	6034      	str	r4, [r6, #0]
 80034f2:	681b      	ldr	r3, [r3, #0]
 80034f4:	2b01      	cmp	r3, #1
 80034f6:	d11f      	bne.n	8003538 <prvAddNewTaskToReadyList+0x64>
 80034f8:	46b8      	mov	r8, r7
 80034fa:	4640      	mov	r0, r8
 80034fc:	3501      	adds	r5, #1
 80034fe:	f7ff ffbf 	bl	8003480 <vListInitialise>
 8003502:	2d07      	cmp	r5, #7
 8003504:	f108 0814 	add.w	r8, r8, #20
 8003508:	d1f7      	bne.n	80034fa <prvAddNewTaskToReadyList+0x26>
 800350a:	f8df 80c0 	ldr.w	r8, [pc, #192]	@ 80035cc <prvAddNewTaskToReadyList+0xf8>
 800350e:	4d26      	ldr	r5, [pc, #152]	@ (80035a8 <prvAddNewTaskToReadyList+0xd4>)
 8003510:	4640      	mov	r0, r8
 8003512:	f7ff ffb5 	bl	8003480 <vListInitialise>
 8003516:	4628      	mov	r0, r5
 8003518:	f7ff ffb2 	bl	8003480 <vListInitialise>
 800351c:	4823      	ldr	r0, [pc, #140]	@ (80035ac <prvAddNewTaskToReadyList+0xd8>)
 800351e:	f7ff ffaf 	bl	8003480 <vListInitialise>
 8003522:	4823      	ldr	r0, [pc, #140]	@ (80035b0 <prvAddNewTaskToReadyList+0xdc>)
 8003524:	f7ff ffac 	bl	8003480 <vListInitialise>
 8003528:	4822      	ldr	r0, [pc, #136]	@ (80035b4 <prvAddNewTaskToReadyList+0xe0>)
 800352a:	f7ff ffa9 	bl	8003480 <vListInitialise>
 800352e:	4b22      	ldr	r3, [pc, #136]	@ (80035b8 <prvAddNewTaskToReadyList+0xe4>)
 8003530:	f8c3 8000 	str.w	r8, [r3]
 8003534:	4b21      	ldr	r3, [pc, #132]	@ (80035bc <prvAddNewTaskToReadyList+0xe8>)
 8003536:	601d      	str	r5, [r3, #0]
 8003538:	4a21      	ldr	r2, [pc, #132]	@ (80035c0 <prvAddNewTaskToReadyList+0xec>)
 800353a:	4922      	ldr	r1, [pc, #136]	@ (80035c4 <prvAddNewTaskToReadyList+0xf0>)
 800353c:	6813      	ldr	r3, [r2, #0]
 800353e:	6808      	ldr	r0, [r1, #0]
 8003540:	3301      	adds	r3, #1
 8003542:	6013      	str	r3, [r2, #0]
 8003544:	6ae2      	ldr	r2, [r4, #44]	@ 0x2c
 8003546:	2301      	movs	r3, #1
 8003548:	4093      	lsls	r3, r2
 800354a:	4303      	orrs	r3, r0
 800354c:	2014      	movs	r0, #20
 800354e:	600b      	str	r3, [r1, #0]
 8003550:	fb00 7002 	mla	r0, r0, r2, r7
 8003554:	1d21      	adds	r1, r4, #4
 8003556:	f7ff ffa1 	bl	800349c <vListInsertEnd>
 800355a:	f000 fb7b 	bl	8003c54 <vPortExitCritical>
 800355e:	4b1a      	ldr	r3, [pc, #104]	@ (80035c8 <prvAddNewTaskToReadyList+0xf4>)
 8003560:	681b      	ldr	r3, [r3, #0]
 8003562:	b173      	cbz	r3, 8003582 <prvAddNewTaskToReadyList+0xae>
 8003564:	6833      	ldr	r3, [r6, #0]
 8003566:	6ada      	ldr	r2, [r3, #44]	@ 0x2c
 8003568:	6ae3      	ldr	r3, [r4, #44]	@ 0x2c
 800356a:	429a      	cmp	r2, r3
 800356c:	d209      	bcs.n	8003582 <prvAddNewTaskToReadyList+0xae>
 800356e:	f04f 23e0 	mov.w	r3, #3758153728	@ 0xe000e000
 8003572:	f04f 5280 	mov.w	r2, #268435456	@ 0x10000000
 8003576:	f8c3 2d04 	str.w	r2, [r3, #3332]	@ 0xd04
 800357a:	f3bf 8f4f 	dsb	sy
 800357e:	f3bf 8f6f 	isb	sy
 8003582:	e8bd 81f0 	ldmia.w	sp!, {r4, r5, r6, r7, r8, pc}
 8003586:	4b10      	ldr	r3, [pc, #64]	@ (80035c8 <prvAddNewTaskToReadyList+0xf4>)
 8003588:	681a      	ldr	r2, [r3, #0]
 800358a:	6ae3      	ldr	r3, [r4, #44]	@ 0x2c
 800358c:	2a00      	cmp	r2, #0
 800358e:	d1d3      	bne.n	8003538 <prvAddNewTaskToReadyList+0x64>
 8003590:	6832      	ldr	r2, [r6, #0]
 8003592:	6ad2      	ldr	r2, [r2, #44]	@ 0x2c
 8003594:	429a      	cmp	r2, r3
 8003596:	bf98      	it	ls
 8003598:	6034      	strls	r4, [r6, #0]
 800359a:	e7cd      	b.n	8003538 <prvAddNewTaskToReadyList+0x64>
 800359c:	20000494 	.word	0x20000494
 80035a0:	20000594 	.word	0x20000594
 80035a4:	20000508 	.word	0x20000508
 80035a8:	200004e0 	.word	0x200004e0
 80035ac:	200004c4 	.word	0x200004c4
 80035b0:	200004b0 	.word	0x200004b0
 80035b4:	20000498 	.word	0x20000498
 80035b8:	200004dc 	.word	0x200004dc
 80035bc:	200004d8 	.word	0x200004d8
 80035c0:	20000478 	.word	0x20000478
 80035c4:	2000048c 	.word	0x2000048c
 80035c8:	20000488 	.word	0x20000488
 80035cc:	200004f4 	.word	0x200004f4

080035d0 <prvResetNextTaskUnblockTime>:
 80035d0:	4a06      	ldr	r2, [pc, #24]	@ (80035ec <prvResetNextTaskUnblockTime+0x1c>)
 80035d2:	6813      	ldr	r3, [r2, #0]
 80035d4:	6819      	ldr	r1, [r3, #0]
 80035d6:	4b06      	ldr	r3, [pc, #24]	@ (80035f0 <prvResetNextTaskUnblockTime+0x20>)
 80035d8:	b919      	cbnz	r1, 80035e2 <prvResetNextTaskUnblockTime+0x12>
 80035da:	f04f 32ff 	mov.w	r2, #4294967295	@ 0xffffffff
 80035de:	601a      	str	r2, [r3, #0]
 80035e0:	4770      	bx	lr
 80035e2:	6812      	ldr	r2, [r2, #0]
 80035e4:	68d2      	ldr	r2, [r2, #12]
 80035e6:	68d2      	ldr	r2, [r2, #12]
 80035e8:	6852      	ldr	r2, [r2, #4]
 80035ea:	e7f8      	b.n	80035de <prvResetNextTaskUnblockTime+0xe>
 80035ec:	200004dc 	.word	0x200004dc
 80035f0:	20000474 	.word	0x20000474

080035f4 <prvDeleteTCB>:
 80035f4:	b510      	push	{r4, lr}
 80035f6:	4604      	mov	r4, r0
 80035f8:	304c      	adds	r0, #76	@ 0x4c
 80035fa:	f001 f855 	bl	80046a8 <_reclaim_reent>
 80035fe:	f894 309d 	ldrb.w	r3, [r4, #157]	@ 0x9d
 8003602:	b93b      	cbnz	r3, 8003614 <prvDeleteTCB+0x20>
 8003604:	6b20      	ldr	r0, [r4, #48]	@ 0x30
 8003606:	f000 fcd5 	bl	8003fb4 <vPortFree>
 800360a:	4620      	mov	r0, r4
 800360c:	e8bd 4010 	ldmia.w	sp!, {r4, lr}
 8003610:	f000 bcd0 	b.w	8003fb4 <vPortFree>
 8003614:	2b01      	cmp	r3, #1
 8003616:	d0f8      	beq.n	800360a <prvDeleteTCB+0x16>
 8003618:	2b02      	cmp	r3, #2
 800361a:	d008      	beq.n	800362e <prvDeleteTCB+0x3a>
 800361c:	f04f 0350 	mov.w	r3, #80	@ 0x50
 8003620:	f383 8811 	msr	BASEPRI, r3
 8003624:	f3bf 8f6f 	isb	sy
 8003628:	f3bf 8f4f 	dsb	sy
 800362c:	e7fe      	b.n	800362c <prvDeleteTCB+0x38>
 800362e:	bd10      	pop	{r4, pc}

08003630 <prvIdleTask>:
 8003630:	b580      	push	{r7, lr}
 8003632:	4c13      	ldr	r4, [pc, #76]	@ (8003680 <prvIdleTask+0x50>)
 8003634:	4f13      	ldr	r7, [pc, #76]	@ (8003684 <prvIdleTask+0x54>)
 8003636:	4d14      	ldr	r5, [pc, #80]	@ (8003688 <prvIdleTask+0x58>)
 8003638:	6823      	ldr	r3, [r4, #0]
 800363a:	b973      	cbnz	r3, 800365a <prvIdleTask+0x2a>
 800363c:	4b13      	ldr	r3, [pc, #76]	@ (800368c <prvIdleTask+0x5c>)
 800363e:	681b      	ldr	r3, [r3, #0]
 8003640:	2b01      	cmp	r3, #1
 8003642:	d9f8      	bls.n	8003636 <prvIdleTask+0x6>
 8003644:	f04f 23e0 	mov.w	r3, #3758153728	@ 0xe000e000
 8003648:	f04f 5280 	mov.w	r2, #268435456	@ 0x10000000
 800364c:	f8c3 2d04 	str.w	r2, [r3, #3332]	@ 0xd04
 8003650:	f3bf 8f4f 	dsb	sy
 8003654:	f3bf 8f6f 	isb	sy
 8003658:	e7ed      	b.n	8003636 <prvIdleTask+0x6>
 800365a:	f000 fadb 	bl	8003c14 <vPortEnterCritical>
 800365e:	68fb      	ldr	r3, [r7, #12]
 8003660:	68de      	ldr	r6, [r3, #12]
 8003662:	1d30      	adds	r0, r6, #4
 8003664:	f7ff ff25 	bl	80034b2 <uxListRemove>
 8003668:	682b      	ldr	r3, [r5, #0]
 800366a:	3b01      	subs	r3, #1
 800366c:	602b      	str	r3, [r5, #0]
 800366e:	6823      	ldr	r3, [r4, #0]
 8003670:	3b01      	subs	r3, #1
 8003672:	6023      	str	r3, [r4, #0]
 8003674:	f000 faee 	bl	8003c54 <vPortExitCritical>
 8003678:	4630      	mov	r0, r6
 800367a:	f7ff ffbb 	bl	80035f4 <prvDeleteTCB>
 800367e:	e7db      	b.n	8003638 <prvIdleTask+0x8>
 8003680:	200004ac 	.word	0x200004ac
 8003684:	200004b0 	.word	0x200004b0
 8003688:	20000494 	.word	0x20000494
 800368c:	20000508 	.word	0x20000508

08003690 <prvInitialiseNewTask.constprop.0>:
 8003690:	e92d 47f0 	stmdb	sp!, {r4, r5, r6, r7, r8, r9, sl, lr}
 8003694:	e9dd 8409 	ldrd	r8, r4, [sp, #36]	@ 0x24
 8003698:	f102 4280 	add.w	r2, r2, #1073741824	@ 0x40000000
 800369c:	6b25      	ldr	r5, [r4, #48]	@ 0x30
 800369e:	3a01      	subs	r2, #1
 80036a0:	eb05 0582 	add.w	r5, r5, r2, lsl #2
 80036a4:	4606      	mov	r6, r0
 80036a6:	461f      	mov	r7, r3
 80036a8:	f025 0507 	bic.w	r5, r5, #7
 80036ac:	2900      	cmp	r1, #0
 80036ae:	d041      	beq.n	8003734 <prvInitialiseNewTask.constprop.0+0xa4>
 80036b0:	1e4b      	subs	r3, r1, #1
 80036b2:	f104 0233 	add.w	r2, r4, #51	@ 0x33
 80036b6:	310f      	adds	r1, #15
 80036b8:	f813 0f01 	ldrb.w	r0, [r3, #1]!
 80036bc:	f802 0f01 	strb.w	r0, [r2, #1]!
 80036c0:	b108      	cbz	r0, 80036c6 <prvInitialiseNewTask.constprop.0+0x36>
 80036c2:	428b      	cmp	r3, r1
 80036c4:	d1f8      	bne.n	80036b8 <prvInitialiseNewTask.constprop.0+0x28>
 80036c6:	2300      	movs	r3, #0
 80036c8:	f884 3043 	strb.w	r3, [r4, #67]	@ 0x43
 80036cc:	9b08      	ldr	r3, [sp, #32]
 80036ce:	2b06      	cmp	r3, #6
 80036d0:	bf28      	it	cs
 80036d2:	2306      	movcs	r3, #6
 80036d4:	f04f 0a00 	mov.w	sl, #0
 80036d8:	62e3      	str	r3, [r4, #44]	@ 0x2c
 80036da:	6463      	str	r3, [r4, #68]	@ 0x44
 80036dc:	1d20      	adds	r0, r4, #4
 80036de:	f8c4 a048 	str.w	sl, [r4, #72]	@ 0x48
 80036e2:	4699      	mov	r9, r3
 80036e4:	f7ff fed7 	bl	8003496 <vListInitialiseItem>
 80036e8:	f104 0018 	add.w	r0, r4, #24
 80036ec:	f7ff fed3 	bl	8003496 <vListInitialiseItem>
 80036f0:	f1c9 0307 	rsb	r3, r9, #7
 80036f4:	224c      	movs	r2, #76	@ 0x4c
 80036f6:	61a3      	str	r3, [r4, #24]
 80036f8:	f8c4 a098 	str.w	sl, [r4, #152]	@ 0x98
 80036fc:	4651      	mov	r1, sl
 80036fe:	18a0      	adds	r0, r4, r2
 8003700:	6124      	str	r4, [r4, #16]
 8003702:	6264      	str	r4, [r4, #36]	@ 0x24
 8003704:	f884 a09c 	strb.w	sl, [r4, #156]	@ 0x9c
 8003708:	f000 ffc6 	bl	8004698 <memset>
 800370c:	4b0b      	ldr	r3, [pc, #44]	@ (800373c <prvInitialiseNewTask.constprop.0+0xac>)
 800370e:	6523      	str	r3, [r4, #80]	@ 0x50
 8003710:	f103 0268 	add.w	r2, r3, #104	@ 0x68
 8003714:	33d0      	adds	r3, #208	@ 0xd0
 8003716:	6562      	str	r2, [r4, #84]	@ 0x54
 8003718:	65a3      	str	r3, [r4, #88]	@ 0x58
 800371a:	463a      	mov	r2, r7
 800371c:	4631      	mov	r1, r6
 800371e:	4628      	mov	r0, r5
 8003720:	f000 fa4c 	bl	8003bbc <pxPortInitialiseStack>
 8003724:	6020      	str	r0, [r4, #0]
 8003726:	f1b8 0f00 	cmp.w	r8, #0
 800372a:	d001      	beq.n	8003730 <prvInitialiseNewTask.constprop.0+0xa0>
 800372c:	f8c8 4000 	str.w	r4, [r8]
 8003730:	e8bd 87f0 	ldmia.w	sp!, {r4, r5, r6, r7, r8, r9, sl, pc}
 8003734:	f884 1034 	strb.w	r1, [r4, #52]	@ 0x34
 8003738:	e7c8      	b.n	80036cc <prvInitialiseNewTask.constprop.0+0x3c>
 800373a:	bf00      	nop
 800373c:	20005da0 	.word	0x20005da0

08003740 <xTaskCreateStatic>:
 8003740:	b570      	push	{r4, r5, r6, lr}
 8003742:	b086      	sub	sp, #24
 8003744:	e9dd 540b 	ldrd	r5, r4, [sp, #44]	@ 0x2c
 8003748:	b945      	cbnz	r5, 800375c <xTaskCreateStatic+0x1c>
 800374a:	f04f 0350 	mov.w	r3, #80	@ 0x50
 800374e:	f383 8811 	msr	BASEPRI, r3
 8003752:	f3bf 8f6f 	isb	sy
 8003756:	f3bf 8f4f 	dsb	sy
 800375a:	e7fe      	b.n	800375a <xTaskCreateStatic+0x1a>
 800375c:	b944      	cbnz	r4, 8003770 <xTaskCreateStatic+0x30>
 800375e:	f04f 0350 	mov.w	r3, #80	@ 0x50
 8003762:	f383 8811 	msr	BASEPRI, r3
 8003766:	f3bf 8f6f 	isb	sy
 800376a:	f3bf 8f4f 	dsb	sy
 800376e:	e7fe      	b.n	800376e <xTaskCreateStatic+0x2e>
 8003770:	26a0      	movs	r6, #160	@ 0xa0
 8003772:	9605      	str	r6, [sp, #20]
 8003774:	9e05      	ldr	r6, [sp, #20]
 8003776:	2ea0      	cmp	r6, #160	@ 0xa0
 8003778:	d008      	beq.n	800378c <xTaskCreateStatic+0x4c>
 800377a:	f04f 0350 	mov.w	r3, #80	@ 0x50
 800377e:	f383 8811 	msr	BASEPRI, r3
 8003782:	f3bf 8f6f 	isb	sy
 8003786:	f3bf 8f4f 	dsb	sy
 800378a:	e7fe      	b.n	800378a <xTaskCreateStatic+0x4a>
 800378c:	6325      	str	r5, [r4, #48]	@ 0x30
 800378e:	2502      	movs	r5, #2
 8003790:	f884 509d 	strb.w	r5, [r4, #157]	@ 0x9d
 8003794:	ad04      	add	r5, sp, #16
 8003796:	9501      	str	r5, [sp, #4]
 8003798:	9d0a      	ldr	r5, [sp, #40]	@ 0x28
 800379a:	9402      	str	r4, [sp, #8]
 800379c:	9500      	str	r5, [sp, #0]
 800379e:	9e05      	ldr	r6, [sp, #20]
 80037a0:	f7ff ff76 	bl	8003690 <prvInitialiseNewTask.constprop.0>
 80037a4:	4620      	mov	r0, r4
 80037a6:	f7ff fe95 	bl	80034d4 <prvAddNewTaskToReadyList>
 80037aa:	9804      	ldr	r0, [sp, #16]
 80037ac:	b006      	add	sp, #24
 80037ae:	bd70      	pop	{r4, r5, r6, pc}

080037b0 <xTaskCreate>:
 80037b0:	e92d 43f0 	stmdb	sp!, {r4, r5, r6, r7, r8, r9, lr}
 80037b4:	4607      	mov	r7, r0
 80037b6:	b085      	sub	sp, #20
 80037b8:	0090      	lsls	r0, r2, #2
 80037ba:	4688      	mov	r8, r1
 80037bc:	4616      	mov	r6, r2
 80037be:	4699      	mov	r9, r3
 80037c0:	f000 fb60 	bl	8003e84 <pvPortMalloc>
 80037c4:	4605      	mov	r5, r0
 80037c6:	b920      	cbnz	r0, 80037d2 <xTaskCreate+0x22>
 80037c8:	f04f 30ff 	mov.w	r0, #4294967295	@ 0xffffffff
 80037cc:	b005      	add	sp, #20
 80037ce:	e8bd 83f0 	ldmia.w	sp!, {r4, r5, r6, r7, r8, r9, pc}
 80037d2:	20a0      	movs	r0, #160	@ 0xa0
 80037d4:	f000 fb56 	bl	8003e84 <pvPortMalloc>
 80037d8:	4604      	mov	r4, r0
 80037da:	b198      	cbz	r0, 8003804 <xTaskCreate+0x54>
 80037dc:	2300      	movs	r3, #0
 80037de:	f880 309d 	strb.w	r3, [r0, #157]	@ 0x9d
 80037e2:	9b0d      	ldr	r3, [sp, #52]	@ 0x34
 80037e4:	6305      	str	r5, [r0, #48]	@ 0x30
 80037e6:	9301      	str	r3, [sp, #4]
 80037e8:	9b0c      	ldr	r3, [sp, #48]	@ 0x30
 80037ea:	9002      	str	r0, [sp, #8]
 80037ec:	9300      	str	r3, [sp, #0]
 80037ee:	4632      	mov	r2, r6
 80037f0:	464b      	mov	r3, r9
 80037f2:	4641      	mov	r1, r8
 80037f4:	4638      	mov	r0, r7
 80037f6:	f7ff ff4b 	bl	8003690 <prvInitialiseNewTask.constprop.0>
 80037fa:	4620      	mov	r0, r4
 80037fc:	f7ff fe6a 	bl	80034d4 <prvAddNewTaskToReadyList>
 8003800:	2001      	movs	r0, #1
 8003802:	e7e3      	b.n	80037cc <xTaskCreate+0x1c>
 8003804:	4628      	mov	r0, r5
 8003806:	f000 fbd5 	bl	8003fb4 <vPortFree>
 800380a:	e7dd      	b.n	80037c8 <xTaskCreate+0x18>

0800380c <vTaskStartScheduler>:
 800380c:	b510      	push	{r4, lr}
 800380e:	b088      	sub	sp, #32
 8003810:	2400      	movs	r4, #0
 8003812:	aa07      	add	r2, sp, #28
 8003814:	a906      	add	r1, sp, #24
 8003816:	a805      	add	r0, sp, #20
 8003818:	e9cd 4405 	strd	r4, r4, [sp, #20]
 800381c:	f7fc fe6a 	bl	80004f4 <vApplicationGetIdleTaskMemory>
 8003820:	9b05      	ldr	r3, [sp, #20]
 8003822:	9302      	str	r3, [sp, #8]
 8003824:	9b06      	ldr	r3, [sp, #24]
 8003826:	9a07      	ldr	r2, [sp, #28]
 8003828:	4912      	ldr	r1, [pc, #72]	@ (8003874 <vTaskStartScheduler+0x68>)
 800382a:	4813      	ldr	r0, [pc, #76]	@ (8003878 <vTaskStartScheduler+0x6c>)
 800382c:	e9cd 4300 	strd	r4, r3, [sp]
 8003830:	4623      	mov	r3, r4
 8003832:	f7ff ff85 	bl	8003740 <xTaskCreateStatic>
 8003836:	b1d0      	cbz	r0, 800386e <vTaskStartScheduler+0x62>
 8003838:	f04f 0350 	mov.w	r3, #80	@ 0x50
 800383c:	f383 8811 	msr	BASEPRI, r3
 8003840:	f3bf 8f6f 	isb	sy
 8003844:	f3bf 8f4f 	dsb	sy
 8003848:	4b0c      	ldr	r3, [pc, #48]	@ (800387c <vTaskStartScheduler+0x70>)
 800384a:	4a0d      	ldr	r2, [pc, #52]	@ (8003880 <vTaskStartScheduler+0x74>)
 800384c:	681b      	ldr	r3, [r3, #0]
 800384e:	334c      	adds	r3, #76	@ 0x4c
 8003850:	6013      	str	r3, [r2, #0]
 8003852:	4b0c      	ldr	r3, [pc, #48]	@ (8003884 <vTaskStartScheduler+0x78>)
 8003854:	f04f 32ff 	mov.w	r2, #4294967295	@ 0xffffffff
 8003858:	601a      	str	r2, [r3, #0]
 800385a:	4b0b      	ldr	r3, [pc, #44]	@ (8003888 <vTaskStartScheduler+0x7c>)
 800385c:	2201      	movs	r2, #1
 800385e:	601a      	str	r2, [r3, #0]
 8003860:	4b0a      	ldr	r3, [pc, #40]	@ (800388c <vTaskStartScheduler+0x80>)
 8003862:	601c      	str	r4, [r3, #0]
 8003864:	b008      	add	sp, #32
 8003866:	e8bd 4010 	ldmia.w	sp!, {r4, lr}
 800386a:	f000 ba63 	b.w	8003d34 <xPortStartScheduler>
 800386e:	b008      	add	sp, #32
 8003870:	bd10      	pop	{r4, pc}
 8003872:	bf00      	nop
 8003874:	08004ec0 	.word	0x08004ec0
 8003878:	08003631 	.word	0x08003631
 800387c:	20000594 	.word	0x20000594
 8003880:	20000108 	.word	0x20000108
 8003884:	20000474 	.word	0x20000474
 8003888:	20000488 	.word	0x20000488
 800388c:	20000490 	.word	0x20000490

08003890 <vTaskSuspendAll>:
 8003890:	4a02      	ldr	r2, [pc, #8]	@ (800389c <vTaskSuspendAll+0xc>)
 8003892:	6813      	ldr	r3, [r2, #0]
 8003894:	3301      	adds	r3, #1
 8003896:	6013      	str	r3, [r2, #0]
 8003898:	4770      	bx	lr
 800389a:	bf00      	nop
 800389c:	20000470 	.word	0x20000470

080038a0 <xTaskIncrementTick>:
 80038a0:	4b41      	ldr	r3, [pc, #260]	@ (80039a8 <xTaskIncrementTick+0x108>)
 80038a2:	681b      	ldr	r3, [r3, #0]
 80038a4:	e92d 4ff7 	stmdb	sp!, {r0, r1, r2, r4, r5, r6, r7, r8, r9, sl, fp, lr}
 80038a8:	2b00      	cmp	r3, #0
 80038aa:	d175      	bne.n	8003998 <xTaskIncrementTick+0xf8>
 80038ac:	4b3f      	ldr	r3, [pc, #252]	@ (80039ac <xTaskIncrementTick+0x10c>)
 80038ae:	681c      	ldr	r4, [r3, #0]
 80038b0:	3401      	adds	r4, #1
 80038b2:	601c      	str	r4, [r3, #0]
 80038b4:	b9bc      	cbnz	r4, 80038e6 <xTaskIncrementTick+0x46>
 80038b6:	4b3e      	ldr	r3, [pc, #248]	@ (80039b0 <xTaskIncrementTick+0x110>)
 80038b8:	681a      	ldr	r2, [r3, #0]
 80038ba:	6812      	ldr	r2, [r2, #0]
 80038bc:	b142      	cbz	r2, 80038d0 <xTaskIncrementTick+0x30>
 80038be:	f04f 0350 	mov.w	r3, #80	@ 0x50
 80038c2:	f383 8811 	msr	BASEPRI, r3
 80038c6:	f3bf 8f6f 	isb	sy
 80038ca:	f3bf 8f4f 	dsb	sy
 80038ce:	e7fe      	b.n	80038ce <xTaskIncrementTick+0x2e>
 80038d0:	4a38      	ldr	r2, [pc, #224]	@ (80039b4 <xTaskIncrementTick+0x114>)
 80038d2:	6819      	ldr	r1, [r3, #0]
 80038d4:	6810      	ldr	r0, [r2, #0]
 80038d6:	6018      	str	r0, [r3, #0]
 80038d8:	6011      	str	r1, [r2, #0]
 80038da:	4a37      	ldr	r2, [pc, #220]	@ (80039b8 <xTaskIncrementTick+0x118>)
 80038dc:	6813      	ldr	r3, [r2, #0]
 80038de:	3301      	adds	r3, #1
 80038e0:	6013      	str	r3, [r2, #0]
 80038e2:	f7ff fe75 	bl	80035d0 <prvResetNextTaskUnblockTime>
 80038e6:	4d35      	ldr	r5, [pc, #212]	@ (80039bc <xTaskIncrementTick+0x11c>)
 80038e8:	4e35      	ldr	r6, [pc, #212]	@ (80039c0 <xTaskIncrementTick+0x120>)
 80038ea:	682b      	ldr	r3, [r5, #0]
 80038ec:	4f35      	ldr	r7, [pc, #212]	@ (80039c4 <xTaskIncrementTick+0x124>)
 80038ee:	429c      	cmp	r4, r3
 80038f0:	f04f 0b00 	mov.w	fp, #0
 80038f4:	d212      	bcs.n	800391c <xTaskIncrementTick+0x7c>
 80038f6:	683a      	ldr	r2, [r7, #0]
 80038f8:	6ad2      	ldr	r2, [r2, #44]	@ 0x2c
 80038fa:	2114      	movs	r1, #20
 80038fc:	434a      	muls	r2, r1
 80038fe:	58b2      	ldr	r2, [r6, r2]
 8003900:	2a02      	cmp	r2, #2
 8003902:	4a31      	ldr	r2, [pc, #196]	@ (80039c8 <xTaskIncrementTick+0x128>)
 8003904:	6812      	ldr	r2, [r2, #0]
 8003906:	bf28      	it	cs
 8003908:	f04f 0b01 	movcs.w	fp, #1
 800390c:	2a00      	cmp	r2, #0
 800390e:	bf18      	it	ne
 8003910:	f04f 0b01 	movne.w	fp, #1
 8003914:	4658      	mov	r0, fp
 8003916:	b003      	add	sp, #12
 8003918:	e8bd 8ff0 	ldmia.w	sp!, {r4, r5, r6, r7, r8, r9, sl, fp, pc}
 800391c:	f8df a090 	ldr.w	sl, [pc, #144]	@ 80039b0 <xTaskIncrementTick+0x110>
 8003920:	f8df 90ac 	ldr.w	r9, [pc, #172]	@ 80039d0 <xTaskIncrementTick+0x130>
 8003924:	f8da 2000 	ldr.w	r2, [sl]
 8003928:	6812      	ldr	r2, [r2, #0]
 800392a:	b91a      	cbnz	r2, 8003934 <xTaskIncrementTick+0x94>
 800392c:	f04f 32ff 	mov.w	r2, #4294967295	@ 0xffffffff
 8003930:	602a      	str	r2, [r5, #0]
 8003932:	e7e0      	b.n	80038f6 <xTaskIncrementTick+0x56>
 8003934:	f8da 2000 	ldr.w	r2, [sl]
 8003938:	68d2      	ldr	r2, [r2, #12]
 800393a:	f8d2 800c 	ldr.w	r8, [r2, #12]
 800393e:	f8d8 1004 	ldr.w	r1, [r8, #4]
 8003942:	428c      	cmp	r4, r1
 8003944:	d201      	bcs.n	800394a <xTaskIncrementTick+0xaa>
 8003946:	6029      	str	r1, [r5, #0]
 8003948:	e7d5      	b.n	80038f6 <xTaskIncrementTick+0x56>
 800394a:	f108 0304 	add.w	r3, r8, #4
 800394e:	4618      	mov	r0, r3
 8003950:	9301      	str	r3, [sp, #4]
 8003952:	f7ff fdae 	bl	80034b2 <uxListRemove>
 8003956:	f8d8 1028 	ldr.w	r1, [r8, #40]	@ 0x28
 800395a:	b119      	cbz	r1, 8003964 <xTaskIncrementTick+0xc4>
 800395c:	f108 0018 	add.w	r0, r8, #24
 8003960:	f7ff fda7 	bl	80034b2 <uxListRemove>
 8003964:	f8d8 002c 	ldr.w	r0, [r8, #44]	@ 0x2c
 8003968:	f8d9 3000 	ldr.w	r3, [r9]
 800396c:	2201      	movs	r2, #1
 800396e:	fa02 f100 	lsl.w	r1, r2, r0
 8003972:	4319      	orrs	r1, r3
 8003974:	f04f 0c14 	mov.w	ip, #20
 8003978:	f8c9 1000 	str.w	r1, [r9]
 800397c:	fb0c 6000 	mla	r0, ip, r0, r6
 8003980:	9901      	ldr	r1, [sp, #4]
 8003982:	f7ff fd8b 	bl	800349c <vListInsertEnd>
 8003986:	6838      	ldr	r0, [r7, #0]
 8003988:	f8d8 102c 	ldr.w	r1, [r8, #44]	@ 0x2c
 800398c:	6ac2      	ldr	r2, [r0, #44]	@ 0x2c
 800398e:	4291      	cmp	r1, r2
 8003990:	bf28      	it	cs
 8003992:	f04f 0b01 	movcs.w	fp, #1
 8003996:	e7c5      	b.n	8003924 <xTaskIncrementTick+0x84>
 8003998:	4a0c      	ldr	r2, [pc, #48]	@ (80039cc <xTaskIncrementTick+0x12c>)
 800399a:	6813      	ldr	r3, [r2, #0]
 800399c:	3301      	adds	r3, #1
 800399e:	6013      	str	r3, [r2, #0]
 80039a0:	f04f 0b00 	mov.w	fp, #0
 80039a4:	e7b6      	b.n	8003914 <xTaskIncrementTick+0x74>
 80039a6:	bf00      	nop
 80039a8:	20000470 	.word	0x20000470
 80039ac:	20000490 	.word	0x20000490
 80039b0:	200004dc 	.word	0x200004dc
 80039b4:	200004d8 	.word	0x200004d8
 80039b8:	2000047c 	.word	0x2000047c
 80039bc:	20000474 	.word	0x20000474
 80039c0:	20000508 	.word	0x20000508
 80039c4:	20000594 	.word	0x20000594
 80039c8:	20000480 	.word	0x20000480
 80039cc:	20000484 	.word	0x20000484
 80039d0:	2000048c 	.word	0x2000048c

080039d4 <xTaskResumeAll>:
 80039d4:	e92d 43f8 	stmdb	sp!, {r3, r4, r5, r6, r7, r8, r9, lr}
 80039d8:	4c31      	ldr	r4, [pc, #196]	@ (8003aa0 <xTaskResumeAll+0xcc>)
 80039da:	6823      	ldr	r3, [r4, #0]
 80039dc:	b943      	cbnz	r3, 80039f0 <xTaskResumeAll+0x1c>
 80039de:	f04f 0350 	mov.w	r3, #80	@ 0x50
 80039e2:	f383 8811 	msr	BASEPRI, r3
 80039e6:	f3bf 8f6f 	isb	sy
 80039ea:	f3bf 8f4f 	dsb	sy
 80039ee:	e7fe      	b.n	80039ee <xTaskResumeAll+0x1a>
 80039f0:	f000 f910 	bl	8003c14 <vPortEnterCritical>
 80039f4:	6823      	ldr	r3, [r4, #0]
 80039f6:	3b01      	subs	r3, #1
 80039f8:	6023      	str	r3, [r4, #0]
 80039fa:	6824      	ldr	r4, [r4, #0]
 80039fc:	b12c      	cbz	r4, 8003a0a <xTaskResumeAll+0x36>
 80039fe:	2400      	movs	r4, #0
 8003a00:	f000 f928 	bl	8003c54 <vPortExitCritical>
 8003a04:	4620      	mov	r0, r4
 8003a06:	e8bd 83f8 	ldmia.w	sp!, {r3, r4, r5, r6, r7, r8, r9, pc}
 8003a0a:	4b26      	ldr	r3, [pc, #152]	@ (8003aa4 <xTaskResumeAll+0xd0>)
 8003a0c:	681b      	ldr	r3, [r3, #0]
 8003a0e:	2b00      	cmp	r3, #0
 8003a10:	d0f5      	beq.n	80039fe <xTaskResumeAll+0x2a>
 8003a12:	4d25      	ldr	r5, [pc, #148]	@ (8003aa8 <xTaskResumeAll+0xd4>)
 8003a14:	4e25      	ldr	r6, [pc, #148]	@ (8003aac <xTaskResumeAll+0xd8>)
 8003a16:	f8df 80a4 	ldr.w	r8, [pc, #164]	@ 8003abc <xTaskResumeAll+0xe8>
 8003a1a:	e01f      	b.n	8003a5c <xTaskResumeAll+0x88>
 8003a1c:	68eb      	ldr	r3, [r5, #12]
 8003a1e:	68dc      	ldr	r4, [r3, #12]
 8003a20:	f104 0904 	add.w	r9, r4, #4
 8003a24:	f104 0018 	add.w	r0, r4, #24
 8003a28:	f7ff fd43 	bl	80034b2 <uxListRemove>
 8003a2c:	4648      	mov	r0, r9
 8003a2e:	f7ff fd40 	bl	80034b2 <uxListRemove>
 8003a32:	6ae2      	ldr	r2, [r4, #44]	@ 0x2c
 8003a34:	6831      	ldr	r1, [r6, #0]
 8003a36:	2701      	movs	r7, #1
 8003a38:	fa07 f302 	lsl.w	r3, r7, r2
 8003a3c:	2014      	movs	r0, #20
 8003a3e:	430b      	orrs	r3, r1
 8003a40:	fb00 8002 	mla	r0, r0, r2, r8
 8003a44:	4649      	mov	r1, r9
 8003a46:	6033      	str	r3, [r6, #0]
 8003a48:	f7ff fd28 	bl	800349c <vListInsertEnd>
 8003a4c:	4b18      	ldr	r3, [pc, #96]	@ (8003ab0 <xTaskResumeAll+0xdc>)
 8003a4e:	6ae2      	ldr	r2, [r4, #44]	@ 0x2c
 8003a50:	681b      	ldr	r3, [r3, #0]
 8003a52:	6adb      	ldr	r3, [r3, #44]	@ 0x2c
 8003a54:	429a      	cmp	r2, r3
 8003a56:	d301      	bcc.n	8003a5c <xTaskResumeAll+0x88>
 8003a58:	4b16      	ldr	r3, [pc, #88]	@ (8003ab4 <xTaskResumeAll+0xe0>)
 8003a5a:	601f      	str	r7, [r3, #0]
 8003a5c:	682b      	ldr	r3, [r5, #0]
 8003a5e:	2b00      	cmp	r3, #0
 8003a60:	d1dc      	bne.n	8003a1c <xTaskResumeAll+0x48>
 8003a62:	b10c      	cbz	r4, 8003a68 <xTaskResumeAll+0x94>
 8003a64:	f7ff fdb4 	bl	80035d0 <prvResetNextTaskUnblockTime>
 8003a68:	4d13      	ldr	r5, [pc, #76]	@ (8003ab8 <xTaskResumeAll+0xe4>)
 8003a6a:	682c      	ldr	r4, [r5, #0]
 8003a6c:	b144      	cbz	r4, 8003a80 <xTaskResumeAll+0xac>
 8003a6e:	4e11      	ldr	r6, [pc, #68]	@ (8003ab4 <xTaskResumeAll+0xe0>)
 8003a70:	2701      	movs	r7, #1
 8003a72:	f7ff ff15 	bl	80038a0 <xTaskIncrementTick>
 8003a76:	b100      	cbz	r0, 8003a7a <xTaskResumeAll+0xa6>
 8003a78:	6037      	str	r7, [r6, #0]
 8003a7a:	3c01      	subs	r4, #1
 8003a7c:	d1f9      	bne.n	8003a72 <xTaskResumeAll+0x9e>
 8003a7e:	602c      	str	r4, [r5, #0]
 8003a80:	4b0c      	ldr	r3, [pc, #48]	@ (8003ab4 <xTaskResumeAll+0xe0>)
 8003a82:	681b      	ldr	r3, [r3, #0]
 8003a84:	2b00      	cmp	r3, #0
 8003a86:	d0ba      	beq.n	80039fe <xTaskResumeAll+0x2a>
 8003a88:	f04f 23e0 	mov.w	r3, #3758153728	@ 0xe000e000
 8003a8c:	f04f 5280 	mov.w	r2, #268435456	@ 0x10000000
 8003a90:	f8c3 2d04 	str.w	r2, [r3, #3332]	@ 0xd04
 8003a94:	f3bf 8f4f 	dsb	sy
 8003a98:	f3bf 8f6f 	isb	sy
 8003a9c:	2401      	movs	r4, #1
 8003a9e:	e7af      	b.n	8003a00 <xTaskResumeAll+0x2c>
 8003aa0:	20000470 	.word	0x20000470
 8003aa4:	20000494 	.word	0x20000494
 8003aa8:	200004c4 	.word	0x200004c4
 8003aac:	2000048c 	.word	0x2000048c
 8003ab0:	20000594 	.word	0x20000594
 8003ab4:	20000480 	.word	0x20000480
 8003ab8:	20000484 	.word	0x20000484
 8003abc:	20000508 	.word	0x20000508

08003ac0 <vTaskSwitchContext>:
 8003ac0:	4b19      	ldr	r3, [pc, #100]	@ (8003b28 <vTaskSwitchContext+0x68>)
 8003ac2:	681a      	ldr	r2, [r3, #0]
 8003ac4:	4b19      	ldr	r3, [pc, #100]	@ (8003b2c <vTaskSwitchContext+0x6c>)
 8003ac6:	b510      	push	{r4, lr}
 8003ac8:	b112      	cbz	r2, 8003ad0 <vTaskSwitchContext+0x10>
 8003aca:	2201      	movs	r2, #1
 8003acc:	601a      	str	r2, [r3, #0]
 8003ace:	bd10      	pop	{r4, pc}
 8003ad0:	601a      	str	r2, [r3, #0]
 8003ad2:	4b17      	ldr	r3, [pc, #92]	@ (8003b30 <vTaskSwitchContext+0x70>)
 8003ad4:	681a      	ldr	r2, [r3, #0]
 8003ad6:	fab2 f282 	clz	r2, r2
 8003ada:	b2d2      	uxtb	r2, r2
 8003adc:	f1c2 021f 	rsb	r2, r2, #31
 8003ae0:	2314      	movs	r3, #20
 8003ae2:	4914      	ldr	r1, [pc, #80]	@ (8003b34 <vTaskSwitchContext+0x74>)
 8003ae4:	4353      	muls	r3, r2
 8003ae6:	18c8      	adds	r0, r1, r3
 8003ae8:	58cc      	ldr	r4, [r1, r3]
 8003aea:	b944      	cbnz	r4, 8003afe <vTaskSwitchContext+0x3e>
 8003aec:	f04f 0350 	mov.w	r3, #80	@ 0x50
 8003af0:	f383 8811 	msr	BASEPRI, r3
 8003af4:	f3bf 8f6f 	isb	sy
 8003af8:	f3bf 8f4f 	dsb	sy
 8003afc:	e7fe      	b.n	8003afc <vTaskSwitchContext+0x3c>
 8003afe:	6844      	ldr	r4, [r0, #4]
 8003b00:	3308      	adds	r3, #8
 8003b02:	6864      	ldr	r4, [r4, #4]
 8003b04:	6044      	str	r4, [r0, #4]
 8003b06:	440b      	add	r3, r1
 8003b08:	429c      	cmp	r4, r3
 8003b0a:	bf04      	itt	eq
 8003b0c:	6863      	ldreq	r3, [r4, #4]
 8003b0e:	6043      	streq	r3, [r0, #4]
 8003b10:	2314      	movs	r3, #20
 8003b12:	fb03 1102 	mla	r1, r3, r2, r1
 8003b16:	684b      	ldr	r3, [r1, #4]
 8003b18:	68da      	ldr	r2, [r3, #12]
 8003b1a:	4b07      	ldr	r3, [pc, #28]	@ (8003b38 <vTaskSwitchContext+0x78>)
 8003b1c:	601a      	str	r2, [r3, #0]
 8003b1e:	681b      	ldr	r3, [r3, #0]
 8003b20:	4a06      	ldr	r2, [pc, #24]	@ (8003b3c <vTaskSwitchContext+0x7c>)
 8003b22:	334c      	adds	r3, #76	@ 0x4c
 8003b24:	6013      	str	r3, [r2, #0]
 8003b26:	e7d2      	b.n	8003ace <vTaskSwitchContext+0xe>
 8003b28:	20000470 	.word	0x20000470
 8003b2c:	20000480 	.word	0x20000480
 8003b30:	2000048c 	.word	0x2000048c
 8003b34:	20000508 	.word	0x20000508
 8003b38:	20000594 	.word	0x20000594
 8003b3c:	20000108 	.word	0x20000108

08003b40 <prvPortStartFirstTask>:
 8003b40:	4808      	ldr	r0, [pc, #32]	@ (8003b64 <prvPortStartFirstTask+0x24>)
 8003b42:	6800      	ldr	r0, [r0, #0]
 8003b44:	6800      	ldr	r0, [r0, #0]
 8003b46:	f380 8808 	msr	MSP, r0
 8003b4a:	f04f 0000 	mov.w	r0, #0
 8003b4e:	f380 8814 	msr	CONTROL, r0
 8003b52:	b662      	cpsie	i
 8003b54:	b661      	cpsie	f
 8003b56:	f3bf 8f4f 	dsb	sy
 8003b5a:	f3bf 8f6f 	isb	sy
 8003b5e:	df00      	svc	0
 8003b60:	bf00      	nop
 8003b62:	0000      	.short	0x0000
 8003b64:	e000ed08 	.word	0xe000ed08

08003b68 <vPortEnableVFP>:
 8003b68:	f8df 000c 	ldr.w	r0, [pc, #12]	@ 8003b78 <vPortEnableVFP+0x10>
 8003b6c:	6801      	ldr	r1, [r0, #0]
 8003b6e:	f441 0170 	orr.w	r1, r1, #15728640	@ 0xf00000
 8003b72:	6001      	str	r1, [r0, #0]
 8003b74:	4770      	bx	lr
 8003b76:	0000      	.short	0x0000
 8003b78:	e000ed88 	.word	0xe000ed88

08003b7c <prvTaskExitError>:
 8003b7c:	b082      	sub	sp, #8
 8003b7e:	2300      	movs	r3, #0
 8003b80:	9301      	str	r3, [sp, #4]
 8003b82:	4b0d      	ldr	r3, [pc, #52]	@ (8003bb8 <prvTaskExitError+0x3c>)
 8003b84:	681b      	ldr	r3, [r3, #0]
 8003b86:	3301      	adds	r3, #1
 8003b88:	d008      	beq.n	8003b9c <prvTaskExitError+0x20>
 8003b8a:	f04f 0350 	mov.w	r3, #80	@ 0x50
 8003b8e:	f383 8811 	msr	BASEPRI, r3
 8003b92:	f3bf 8f6f 	isb	sy
 8003b96:	f3bf 8f4f 	dsb	sy
 8003b9a:	e7fe      	b.n	8003b9a <prvTaskExitError+0x1e>
 8003b9c:	f04f 0350 	mov.w	r3, #80	@ 0x50
 8003ba0:	f383 8811 	msr	BASEPRI, r3
 8003ba4:	f3bf 8f6f 	isb	sy
 8003ba8:	f3bf 8f4f 	dsb	sy
 8003bac:	9b01      	ldr	r3, [sp, #4]
 8003bae:	2b00      	cmp	r3, #0
 8003bb0:	d0fc      	beq.n	8003bac <prvTaskExitError+0x30>
 8003bb2:	b002      	add	sp, #8
 8003bb4:	4770      	bx	lr
 8003bb6:	bf00      	nop
 8003bb8:	20000094 	.word	0x20000094

08003bbc <pxPortInitialiseStack>:
 8003bbc:	f04f 7380 	mov.w	r3, #16777216	@ 0x1000000
 8003bc0:	f840 3c04 	str.w	r3, [r0, #-4]
 8003bc4:	4b07      	ldr	r3, [pc, #28]	@ (8003be4 <pxPortInitialiseStack+0x28>)
 8003bc6:	f840 3c0c 	str.w	r3, [r0, #-12]
 8003bca:	f021 0101 	bic.w	r1, r1, #1
 8003bce:	f06f 0302 	mvn.w	r3, #2
 8003bd2:	f840 1c08 	str.w	r1, [r0, #-8]
 8003bd6:	f840 2c20 	str.w	r2, [r0, #-32]
 8003bda:	f840 3c24 	str.w	r3, [r0, #-36]
 8003bde:	3844      	subs	r0, #68	@ 0x44
 8003be0:	4770      	bx	lr
 8003be2:	bf00      	nop
 8003be4:	08003b7d 	.word	0x08003b7d
	...

08003bf0 <SVC_Handler>:
 8003bf0:	4b07      	ldr	r3, [pc, #28]	@ (8003c10 <pxCurrentTCBConst2>)
 8003bf2:	6819      	ldr	r1, [r3, #0]
 8003bf4:	6808      	ldr	r0, [r1, #0]
 8003bf6:	e8b0 4ff0 	ldmia.w	r0!, {r4, r5, r6, r7, r8, r9, sl, fp, lr}
 8003bfa:	f380 8809 	msr	PSP, r0
 8003bfe:	f3bf 8f6f 	isb	sy
 8003c02:	f04f 0000 	mov.w	r0, #0
 8003c06:	f380 8811 	msr	BASEPRI, r0
 8003c0a:	4770      	bx	lr
 8003c0c:	f3af 8000 	nop.w

08003c10 <pxCurrentTCBConst2>:
 8003c10:	20000594 	.word	0x20000594

08003c14 <vPortEnterCritical>:
 8003c14:	f04f 0350 	mov.w	r3, #80	@ 0x50
 8003c18:	f383 8811 	msr	BASEPRI, r3
 8003c1c:	f3bf 8f6f 	isb	sy
 8003c20:	f3bf 8f4f 	dsb	sy
 8003c24:	4a0a      	ldr	r2, [pc, #40]	@ (8003c50 <vPortEnterCritical+0x3c>)
 8003c26:	6813      	ldr	r3, [r2, #0]
 8003c28:	3301      	adds	r3, #1
 8003c2a:	2b01      	cmp	r3, #1
 8003c2c:	6013      	str	r3, [r2, #0]
 8003c2e:	d10e      	bne.n	8003c4e <vPortEnterCritical+0x3a>
 8003c30:	f04f 23e0 	mov.w	r3, #3758153728	@ 0xe000e000
 8003c34:	f8d3 3d04 	ldr.w	r3, [r3, #3332]	@ 0xd04
 8003c38:	b2db      	uxtb	r3, r3
 8003c3a:	b143      	cbz	r3, 8003c4e <vPortEnterCritical+0x3a>
 8003c3c:	f04f 0350 	mov.w	r3, #80	@ 0x50
 8003c40:	f383 8811 	msr	BASEPRI, r3
 8003c44:	f3bf 8f6f 	isb	sy
 8003c48:	f3bf 8f4f 	dsb	sy
 8003c4c:	e7fe      	b.n	8003c4c <vPortEnterCritical+0x38>
 8003c4e:	4770      	bx	lr
 8003c50:	20000094 	.word	0x20000094

08003c54 <vPortExitCritical>:
 8003c54:	4a08      	ldr	r2, [pc, #32]	@ (8003c78 <vPortExitCritical+0x24>)
 8003c56:	6813      	ldr	r3, [r2, #0]
 8003c58:	b943      	cbnz	r3, 8003c6c <vPortExitCritical+0x18>
 8003c5a:	f04f 0350 	mov.w	r3, #80	@ 0x50
 8003c5e:	f383 8811 	msr	BASEPRI, r3
 8003c62:	f3bf 8f6f 	isb	sy
 8003c66:	f3bf 8f4f 	dsb	sy
 8003c6a:	e7fe      	b.n	8003c6a <vPortExitCritical+0x16>
 8003c6c:	3b01      	subs	r3, #1
 8003c6e:	6013      	str	r3, [r2, #0]
 8003c70:	b90b      	cbnz	r3, 8003c76 <vPortExitCritical+0x22>
 8003c72:	f383 8811 	msr	BASEPRI, r3
 8003c76:	4770      	bx	lr
 8003c78:	20000094 	.word	0x20000094
 8003c7c:	00000000 	.word	0x00000000

08003c80 <PendSV_Handler>:
 8003c80:	f3ef 8009 	mrs	r0, PSP
 8003c84:	f3bf 8f6f 	isb	sy
 8003c88:	4b15      	ldr	r3, [pc, #84]	@ (8003ce0 <pxCurrentTCBConst>)
 8003c8a:	681a      	ldr	r2, [r3, #0]
 8003c8c:	f01e 0f10 	tst.w	lr, #16
 8003c90:	bf08      	it	eq
 8003c92:	ed20 8a10 	vstmdbeq	r0!, {s16-s31}
 8003c96:	e920 4ff0 	stmdb	r0!, {r4, r5, r6, r7, r8, r9, sl, fp, lr}
 8003c9a:	6010      	str	r0, [r2, #0]
 8003c9c:	e92d 0009 	stmdb	sp!, {r0, r3}
 8003ca0:	f04f 0050 	mov.w	r0, #80	@ 0x50
 8003ca4:	f380 8811 	msr	BASEPRI, r0
 8003ca8:	f3bf 8f4f 	dsb	sy
 8003cac:	f3bf 8f6f 	isb	sy
 8003cb0:	f7ff ff06 	bl	8003ac0 <vTaskSwitchContext>
 8003cb4:	f04f 0000 	mov.w	r0, #0
 8003cb8:	f380 8811 	msr	BASEPRI, r0
 8003cbc:	bc09      	pop	{r0, r3}
 8003cbe:	6819      	ldr	r1, [r3, #0]
 8003cc0:	6808      	ldr	r0, [r1, #0]
 8003cc2:	e8b0 4ff0 	ldmia.w	r0!, {r4, r5, r6, r7, r8, r9, sl, fp, lr}
 8003cc6:	f01e 0f10 	tst.w	lr, #16
 8003cca:	bf08      	it	eq
 8003ccc:	ecb0 8a10 	vldmiaeq	r0!, {s16-s31}
 8003cd0:	f380 8809 	msr	PSP, r0
 8003cd4:	f3bf 8f6f 	isb	sy
 8003cd8:	4770      	bx	lr
 8003cda:	bf00      	nop
 8003cdc:	f3af 8000 	nop.w

08003ce0 <pxCurrentTCBConst>:
 8003ce0:	20000594 	.word	0x20000594

08003ce4 <SysTick_Handler>:
 8003ce4:	b508      	push	{r3, lr}
 8003ce6:	f04f 0350 	mov.w	r3, #80	@ 0x50
 8003cea:	f383 8811 	msr	BASEPRI, r3
 8003cee:	f3bf 8f6f 	isb	sy
 8003cf2:	f3bf 8f4f 	dsb	sy
 8003cf6:	f7ff fdd3 	bl	80038a0 <xTaskIncrementTick>
 8003cfa:	b128      	cbz	r0, 8003d08 <SysTick_Handler+0x24>
 8003cfc:	f04f 23e0 	mov.w	r3, #3758153728	@ 0xe000e000
 8003d00:	f04f 5280 	mov.w	r2, #268435456	@ 0x10000000
 8003d04:	f8c3 2d04 	str.w	r2, [r3, #3332]	@ 0xd04
 8003d08:	2300      	movs	r3, #0
 8003d0a:	f383 8811 	msr	BASEPRI, r3
 8003d0e:	bd08      	pop	{r3, pc}

08003d10 <vPortSetupTimerInterrupt>:
 8003d10:	f04f 22e0 	mov.w	r2, #3758153728	@ 0xe000e000
 8003d14:	2300      	movs	r3, #0
 8003d16:	6113      	str	r3, [r2, #16]
 8003d18:	6193      	str	r3, [r2, #24]
 8003d1a:	4b05      	ldr	r3, [pc, #20]	@ (8003d30 <vPortSetupTimerInterrupt+0x20>)
 8003d1c:	f44f 717a 	mov.w	r1, #1000	@ 0x3e8
 8003d20:	681b      	ldr	r3, [r3, #0]
 8003d22:	fbb3 f3f1 	udiv	r3, r3, r1
 8003d26:	3b01      	subs	r3, #1
 8003d28:	6153      	str	r3, [r2, #20]
 8003d2a:	2307      	movs	r3, #7
 8003d2c:	6113      	str	r3, [r2, #16]
 8003d2e:	4770      	bx	lr
 8003d30:	20000000 	.word	0x20000000

08003d34 <xPortStartScheduler>:
 8003d34:	f04f 23e0 	mov.w	r3, #3758153728	@ 0xe000e000
 8003d38:	b537      	push	{r0, r1, r2, r4, r5, lr}
 8003d3a:	f8d3 1d00 	ldr.w	r1, [r3, #3328]	@ 0xd00
 8003d3e:	4a38      	ldr	r2, [pc, #224]	@ (8003e20 <xPortStartScheduler+0xec>)
 8003d40:	4291      	cmp	r1, r2
 8003d42:	d108      	bne.n	8003d56 <xPortStartScheduler+0x22>
 8003d44:	f04f 0350 	mov.w	r3, #80	@ 0x50
 8003d48:	f383 8811 	msr	BASEPRI, r3
 8003d4c:	f3bf 8f6f 	isb	sy
 8003d50:	f3bf 8f4f 	dsb	sy
 8003d54:	e7fe      	b.n	8003d54 <xPortStartScheduler+0x20>
 8003d56:	f8d3 2d00 	ldr.w	r2, [r3, #3328]	@ 0xd00
 8003d5a:	4b32      	ldr	r3, [pc, #200]	@ (8003e24 <xPortStartScheduler+0xf0>)
 8003d5c:	429a      	cmp	r2, r3
 8003d5e:	d108      	bne.n	8003d72 <xPortStartScheduler+0x3e>
 8003d60:	f04f 0350 	mov.w	r3, #80	@ 0x50
 8003d64:	f383 8811 	msr	BASEPRI, r3
 8003d68:	f3bf 8f6f 	isb	sy
 8003d6c:	f3bf 8f4f 	dsb	sy
 8003d70:	e7fe      	b.n	8003d70 <xPortStartScheduler+0x3c>
 8003d72:	4b2d      	ldr	r3, [pc, #180]	@ (8003e28 <xPortStartScheduler+0xf4>)
 8003d74:	781a      	ldrb	r2, [r3, #0]
 8003d76:	b2d2      	uxtb	r2, r2
 8003d78:	9201      	str	r2, [sp, #4]
 8003d7a:	22ff      	movs	r2, #255	@ 0xff
 8003d7c:	701a      	strb	r2, [r3, #0]
 8003d7e:	781b      	ldrb	r3, [r3, #0]
 8003d80:	4a2a      	ldr	r2, [pc, #168]	@ (8003e2c <xPortStartScheduler+0xf8>)
 8003d82:	b2db      	uxtb	r3, r3
 8003d84:	f88d 3003 	strb.w	r3, [sp, #3]
 8003d88:	f89d 3003 	ldrb.w	r3, [sp, #3]
 8003d8c:	f003 0350 	and.w	r3, r3, #80	@ 0x50
 8003d90:	7013      	strb	r3, [r2, #0]
 8003d92:	4a27      	ldr	r2, [pc, #156]	@ (8003e30 <xPortStartScheduler+0xfc>)
 8003d94:	2307      	movs	r3, #7
 8003d96:	6013      	str	r3, [r2, #0]
 8003d98:	f89d 1003 	ldrb.w	r1, [sp, #3]
 8003d9c:	6813      	ldr	r3, [r2, #0]
 8003d9e:	0609      	lsls	r1, r1, #24
 8003da0:	d40a      	bmi.n	8003db8 <xPortStartScheduler+0x84>
 8003da2:	2b03      	cmp	r3, #3
 8003da4:	d011      	beq.n	8003dca <xPortStartScheduler+0x96>
 8003da6:	f04f 0350 	mov.w	r3, #80	@ 0x50
 8003daa:	f383 8811 	msr	BASEPRI, r3
 8003dae:	f3bf 8f6f 	isb	sy
 8003db2:	f3bf 8f4f 	dsb	sy
 8003db6:	e7fe      	b.n	8003db6 <xPortStartScheduler+0x82>
 8003db8:	3b01      	subs	r3, #1
 8003dba:	6013      	str	r3, [r2, #0]
 8003dbc:	f89d 3003 	ldrb.w	r3, [sp, #3]
 8003dc0:	005b      	lsls	r3, r3, #1
 8003dc2:	b2db      	uxtb	r3, r3
 8003dc4:	f88d 3003 	strb.w	r3, [sp, #3]
 8003dc8:	e7e6      	b.n	8003d98 <xPortStartScheduler+0x64>
 8003dca:	f44f 7340 	mov.w	r3, #768	@ 0x300
 8003dce:	6013      	str	r3, [r2, #0]
 8003dd0:	9b01      	ldr	r3, [sp, #4]
 8003dd2:	4a15      	ldr	r2, [pc, #84]	@ (8003e28 <xPortStartScheduler+0xf4>)
 8003dd4:	f04f 24e0 	mov.w	r4, #3758153728	@ 0xe000e000
 8003dd8:	b2db      	uxtb	r3, r3
 8003dda:	7013      	strb	r3, [r2, #0]
 8003ddc:	f8d4 3d20 	ldr.w	r3, [r4, #3360]	@ 0xd20
 8003de0:	f443 0370 	orr.w	r3, r3, #15728640	@ 0xf00000
 8003de4:	f8c4 3d20 	str.w	r3, [r4, #3360]	@ 0xd20
 8003de8:	f8d4 3d20 	ldr.w	r3, [r4, #3360]	@ 0xd20
 8003dec:	f043 4370 	orr.w	r3, r3, #4026531840	@ 0xf0000000
 8003df0:	f8c4 3d20 	str.w	r3, [r4, #3360]	@ 0xd20
 8003df4:	f7ff ff8c 	bl	8003d10 <vPortSetupTimerInterrupt>
 8003df8:	4b0e      	ldr	r3, [pc, #56]	@ (8003e34 <xPortStartScheduler+0x100>)
 8003dfa:	2500      	movs	r5, #0
 8003dfc:	601d      	str	r5, [r3, #0]
 8003dfe:	f7ff feb3 	bl	8003b68 <vPortEnableVFP>
 8003e02:	f8d4 3f34 	ldr.w	r3, [r4, #3892]	@ 0xf34
 8003e06:	f043 4340 	orr.w	r3, r3, #3221225472	@ 0xc0000000
 8003e0a:	f8c4 3f34 	str.w	r3, [r4, #3892]	@ 0xf34
 8003e0e:	f7ff fe97 	bl	8003b40 <prvPortStartFirstTask>
 8003e12:	f7ff fe55 	bl	8003ac0 <vTaskSwitchContext>
 8003e16:	f7ff feb1 	bl	8003b7c <prvTaskExitError>
 8003e1a:	4628      	mov	r0, r5
 8003e1c:	b003      	add	sp, #12
 8003e1e:	bd30      	pop	{r4, r5, pc}
 8003e20:	410fc271 	.word	0x410fc271
 8003e24:	410fc270 	.word	0x410fc270
 8003e28:	e000e400 	.word	0xe000e400
 8003e2c:	2000059c 	.word	0x2000059c
 8003e30:	20000598 	.word	0x20000598
 8003e34:	20000094 	.word	0x20000094

08003e38 <prvInsertBlockIntoFreeList>:
 8003e38:	b510      	push	{r4, lr}
 8003e3a:	4b10      	ldr	r3, [pc, #64]	@ (8003e7c <prvInsertBlockIntoFreeList+0x44>)
 8003e3c:	461a      	mov	r2, r3
 8003e3e:	681b      	ldr	r3, [r3, #0]
 8003e40:	4283      	cmp	r3, r0
 8003e42:	d3fb      	bcc.n	8003e3c <prvInsertBlockIntoFreeList+0x4>
 8003e44:	6854      	ldr	r4, [r2, #4]
 8003e46:	1911      	adds	r1, r2, r4
 8003e48:	4288      	cmp	r0, r1
 8003e4a:	bf01      	itttt	eq
 8003e4c:	6841      	ldreq	r1, [r0, #4]
 8003e4e:	4610      	moveq	r0, r2
 8003e50:	1909      	addeq	r1, r1, r4
 8003e52:	6051      	streq	r1, [r2, #4]
 8003e54:	6844      	ldr	r4, [r0, #4]
 8003e56:	1901      	adds	r1, r0, r4
 8003e58:	428b      	cmp	r3, r1
 8003e5a:	d10c      	bne.n	8003e76 <prvInsertBlockIntoFreeList+0x3e>
 8003e5c:	4908      	ldr	r1, [pc, #32]	@ (8003e80 <prvInsertBlockIntoFreeList+0x48>)
 8003e5e:	6809      	ldr	r1, [r1, #0]
 8003e60:	428b      	cmp	r3, r1
 8003e62:	d003      	beq.n	8003e6c <prvInsertBlockIntoFreeList+0x34>
 8003e64:	6859      	ldr	r1, [r3, #4]
 8003e66:	4421      	add	r1, r4
 8003e68:	6041      	str	r1, [r0, #4]
 8003e6a:	6819      	ldr	r1, [r3, #0]
 8003e6c:	6001      	str	r1, [r0, #0]
 8003e6e:	4290      	cmp	r0, r2
 8003e70:	bf18      	it	ne
 8003e72:	6010      	strne	r0, [r2, #0]
 8003e74:	bd10      	pop	{r4, pc}
 8003e76:	4619      	mov	r1, r3
 8003e78:	e7f8      	b.n	8003e6c <prvInsertBlockIntoFreeList+0x34>
 8003e7a:	bf00      	nop
 8003e7c:	200005b8 	.word	0x200005b8
 8003e80:	200005b4 	.word	0x200005b4

08003e84 <pvPortMalloc>:
 8003e84:	e92d 41f0 	stmdb	sp!, {r4, r5, r6, r7, r8, lr}
 8003e88:	4604      	mov	r4, r0
 8003e8a:	f7ff fd01 	bl	8003890 <vTaskSuspendAll>
 8003e8e:	4942      	ldr	r1, [pc, #264]	@ (8003f98 <pvPortMalloc+0x114>)
 8003e90:	4d42      	ldr	r5, [pc, #264]	@ (8003f9c <pvPortMalloc+0x118>)
 8003e92:	680b      	ldr	r3, [r1, #0]
 8003e94:	bb0b      	cbnz	r3, 8003eda <pvPortMalloc+0x56>
 8003e96:	4a42      	ldr	r2, [pc, #264]	@ (8003fa0 <pvPortMalloc+0x11c>)
 8003e98:	0756      	lsls	r6, r2, #29
 8003e9a:	bf1f      	itttt	ne
 8003e9c:	1dd0      	addne	r0, r2, #7
 8003e9e:	f020 0007 	bicne.w	r0, r0, #7
 8003ea2:	f502 5270 	addne.w	r2, r2, #15360	@ 0x3c00
 8003ea6:	1a13      	subne	r3, r2, r0
 8003ea8:	bf0c      	ite	eq
 8003eaa:	f44f 5370 	moveq.w	r3, #15360	@ 0x3c00
 8003eae:	4602      	movne	r2, r0
 8003eb0:	4413      	add	r3, r2
 8003eb2:	4e3c      	ldr	r6, [pc, #240]	@ (8003fa4 <pvPortMalloc+0x120>)
 8003eb4:	3b08      	subs	r3, #8
 8003eb6:	f023 0307 	bic.w	r3, r3, #7
 8003eba:	2000      	movs	r0, #0
 8003ebc:	6070      	str	r0, [r6, #4]
 8003ebe:	6032      	str	r2, [r6, #0]
 8003ec0:	e9c3 0000 	strd	r0, r0, [r3]
 8003ec4:	1a98      	subs	r0, r3, r2
 8003ec6:	e9c2 3000 	strd	r3, r0, [r2]
 8003eca:	600b      	str	r3, [r1, #0]
 8003ecc:	4b36      	ldr	r3, [pc, #216]	@ (8003fa8 <pvPortMalloc+0x124>)
 8003ece:	6018      	str	r0, [r3, #0]
 8003ed0:	4b36      	ldr	r3, [pc, #216]	@ (8003fac <pvPortMalloc+0x128>)
 8003ed2:	6018      	str	r0, [r3, #0]
 8003ed4:	f04f 4300 	mov.w	r3, #2147483648	@ 0x80000000
 8003ed8:	602b      	str	r3, [r5, #0]
 8003eda:	682e      	ldr	r6, [r5, #0]
 8003edc:	4226      	tst	r6, r4
 8003ede:	d155      	bne.n	8003f8c <pvPortMalloc+0x108>
 8003ee0:	2c00      	cmp	r4, #0
 8003ee2:	d046      	beq.n	8003f72 <pvPortMalloc+0xee>
 8003ee4:	f104 0308 	add.w	r3, r4, #8
 8003ee8:	0760      	lsls	r0, r4, #29
 8003eea:	bf1c      	itt	ne
 8003eec:	f023 0307 	bicne.w	r3, r3, #7
 8003ef0:	3308      	addne	r3, #8
 8003ef2:	2b00      	cmp	r3, #0
 8003ef4:	d04a      	beq.n	8003f8c <pvPortMalloc+0x108>
 8003ef6:	4f2d      	ldr	r7, [pc, #180]	@ (8003fac <pvPortMalloc+0x128>)
 8003ef8:	683c      	ldr	r4, [r7, #0]
 8003efa:	429c      	cmp	r4, r3
 8003efc:	d346      	bcc.n	8003f8c <pvPortMalloc+0x108>
 8003efe:	4a29      	ldr	r2, [pc, #164]	@ (8003fa4 <pvPortMalloc+0x120>)
 8003f00:	6815      	ldr	r5, [r2, #0]
 8003f02:	6868      	ldr	r0, [r5, #4]
 8003f04:	4298      	cmp	r0, r3
 8003f06:	d204      	bcs.n	8003f12 <pvPortMalloc+0x8e>
 8003f08:	f8d5 c000 	ldr.w	ip, [r5]
 8003f0c:	f1bc 0f00 	cmp.w	ip, #0
 8003f10:	d115      	bne.n	8003f3e <pvPortMalloc+0xba>
 8003f12:	6809      	ldr	r1, [r1, #0]
 8003f14:	42a9      	cmp	r1, r5
 8003f16:	d039      	beq.n	8003f8c <pvPortMalloc+0x108>
 8003f18:	6829      	ldr	r1, [r5, #0]
 8003f1a:	f8d2 8000 	ldr.w	r8, [r2]
 8003f1e:	6011      	str	r1, [r2, #0]
 8003f20:	1ac2      	subs	r2, r0, r3
 8003f22:	2a10      	cmp	r2, #16
 8003f24:	d912      	bls.n	8003f4c <pvPortMalloc+0xc8>
 8003f26:	18e8      	adds	r0, r5, r3
 8003f28:	0741      	lsls	r1, r0, #29
 8003f2a:	d00b      	beq.n	8003f44 <pvPortMalloc+0xc0>
 8003f2c:	f04f 0350 	mov.w	r3, #80	@ 0x50
 8003f30:	f383 8811 	msr	BASEPRI, r3
 8003f34:	f3bf 8f6f 	isb	sy
 8003f38:	f3bf 8f4f 	dsb	sy
 8003f3c:	e7fe      	b.n	8003f3c <pvPortMalloc+0xb8>
 8003f3e:	462a      	mov	r2, r5
 8003f40:	4665      	mov	r5, ip
 8003f42:	e7de      	b.n	8003f02 <pvPortMalloc+0x7e>
 8003f44:	6042      	str	r2, [r0, #4]
 8003f46:	606b      	str	r3, [r5, #4]
 8003f48:	f7ff ff76 	bl	8003e38 <prvInsertBlockIntoFreeList>
 8003f4c:	686a      	ldr	r2, [r5, #4]
 8003f4e:	4916      	ldr	r1, [pc, #88]	@ (8003fa8 <pvPortMalloc+0x124>)
 8003f50:	1aa4      	subs	r4, r4, r2
 8003f52:	4316      	orrs	r6, r2
 8003f54:	4a16      	ldr	r2, [pc, #88]	@ (8003fb0 <pvPortMalloc+0x12c>)
 8003f56:	6808      	ldr	r0, [r1, #0]
 8003f58:	603c      	str	r4, [r7, #0]
 8003f5a:	2300      	movs	r3, #0
 8003f5c:	602b      	str	r3, [r5, #0]
 8003f5e:	6813      	ldr	r3, [r2, #0]
 8003f60:	606e      	str	r6, [r5, #4]
 8003f62:	4284      	cmp	r4, r0
 8003f64:	f103 0301 	add.w	r3, r3, #1
 8003f68:	bf38      	it	cc
 8003f6a:	600c      	strcc	r4, [r1, #0]
 8003f6c:	6013      	str	r3, [r2, #0]
 8003f6e:	f108 0408 	add.w	r4, r8, #8
 8003f72:	f7ff fd2f 	bl	80039d4 <xTaskResumeAll>
 8003f76:	0763      	lsls	r3, r4, #29
 8003f78:	d00a      	beq.n	8003f90 <pvPortMalloc+0x10c>
 8003f7a:	f04f 0350 	mov.w	r3, #80	@ 0x50
 8003f7e:	f383 8811 	msr	BASEPRI, r3
 8003f82:	f3bf 8f6f 	isb	sy
 8003f86:	f3bf 8f4f 	dsb	sy
 8003f8a:	e7fe      	b.n	8003f8a <pvPortMalloc+0x106>
 8003f8c:	2400      	movs	r4, #0
 8003f8e:	e7f0      	b.n	8003f72 <pvPortMalloc+0xee>
 8003f90:	4620      	mov	r0, r4
 8003f92:	e8bd 81f0 	ldmia.w	sp!, {r4, r5, r6, r7, r8, pc}
 8003f96:	bf00      	nop
 8003f98:	200005b4 	.word	0x200005b4
 8003f9c:	200005a0 	.word	0x200005a0
 8003fa0:	200005c0 	.word	0x200005c0
 8003fa4:	200005b8 	.word	0x200005b8
 8003fa8:	200005ac 	.word	0x200005ac
 8003fac:	200005b0 	.word	0x200005b0
 8003fb0:	200005a8 	.word	0x200005a8

08003fb4 <vPortFree>:
 8003fb4:	b510      	push	{r4, lr}
 8003fb6:	4604      	mov	r4, r0
 8003fb8:	b390      	cbz	r0, 8004020 <vPortFree+0x6c>
 8003fba:	4a1a      	ldr	r2, [pc, #104]	@ (8004024 <vPortFree+0x70>)
 8003fbc:	f850 3c04 	ldr.w	r3, [r0, #-4]
 8003fc0:	6812      	ldr	r2, [r2, #0]
 8003fc2:	4213      	tst	r3, r2
 8003fc4:	d108      	bne.n	8003fd8 <vPortFree+0x24>
 8003fc6:	f04f 0350 	mov.w	r3, #80	@ 0x50
 8003fca:	f383 8811 	msr	BASEPRI, r3
 8003fce:	f3bf 8f6f 	isb	sy
 8003fd2:	f3bf 8f4f 	dsb	sy
 8003fd6:	e7fe      	b.n	8003fd6 <vPortFree+0x22>
 8003fd8:	f850 1c08 	ldr.w	r1, [r0, #-8]
 8003fdc:	b141      	cbz	r1, 8003ff0 <vPortFree+0x3c>
 8003fde:	f04f 0350 	mov.w	r3, #80	@ 0x50
 8003fe2:	f383 8811 	msr	BASEPRI, r3
 8003fe6:	f3bf 8f6f 	isb	sy
 8003fea:	f3bf 8f4f 	dsb	sy
 8003fee:	e7fe      	b.n	8003fee <vPortFree+0x3a>
 8003ff0:	ea23 0302 	bic.w	r3, r3, r2
 8003ff4:	f840 3c04 	str.w	r3, [r0, #-4]
 8003ff8:	f7ff fc4a 	bl	8003890 <vTaskSuspendAll>
 8003ffc:	4a0a      	ldr	r2, [pc, #40]	@ (8004028 <vPortFree+0x74>)
 8003ffe:	f854 3c04 	ldr.w	r3, [r4, #-4]
 8004002:	6811      	ldr	r1, [r2, #0]
 8004004:	f1a4 0008 	sub.w	r0, r4, #8
 8004008:	440b      	add	r3, r1
 800400a:	6013      	str	r3, [r2, #0]
 800400c:	f7ff ff14 	bl	8003e38 <prvInsertBlockIntoFreeList>
 8004010:	4a06      	ldr	r2, [pc, #24]	@ (800402c <vPortFree+0x78>)
 8004012:	6813      	ldr	r3, [r2, #0]
 8004014:	e8bd 4010 	ldmia.w	sp!, {r4, lr}
 8004018:	3301      	adds	r3, #1
 800401a:	6013      	str	r3, [r2, #0]
 800401c:	f7ff bcda 	b.w	80039d4 <xTaskResumeAll>
 8004020:	bd10      	pop	{r4, pc}
 8004022:	bf00      	nop
 8004024:	200005a0 	.word	0x200005a0
 8004028:	200005b0 	.word	0x200005b0
 800402c:	200005a4 	.word	0x200005a4

08004030 <MX_USB_DEVICE_Init>:
 8004030:	b508      	push	{r3, lr}
 8004032:	490f      	ldr	r1, [pc, #60]	@ (8004070 <MX_USB_DEVICE_Init+0x40>)
 8004034:	480f      	ldr	r0, [pc, #60]	@ (8004074 <MX_USB_DEVICE_Init+0x44>)
 8004036:	2200      	movs	r2, #0
 8004038:	f7fe fdf8 	bl	8002c2c <USBD_Init>
 800403c:	b108      	cbz	r0, 8004042 <MX_USB_DEVICE_Init+0x12>
 800403e:	f7fc fb49 	bl	80006d4 <Error_Handler>
 8004042:	490d      	ldr	r1, [pc, #52]	@ (8004078 <MX_USB_DEVICE_Init+0x48>)
 8004044:	480b      	ldr	r0, [pc, #44]	@ (8004074 <MX_USB_DEVICE_Init+0x44>)
 8004046:	f7fe fe04 	bl	8002c52 <USBD_RegisterClass>
 800404a:	b108      	cbz	r0, 8004050 <MX_USB_DEVICE_Init+0x20>
 800404c:	f7fc fb42 	bl	80006d4 <Error_Handler>
 8004050:	490a      	ldr	r1, [pc, #40]	@ (800407c <MX_USB_DEVICE_Init+0x4c>)
 8004052:	4808      	ldr	r0, [pc, #32]	@ (8004074 <MX_USB_DEVICE_Init+0x44>)
 8004054:	f7fe fd94 	bl	8002b80 <USBD_CDC_RegisterInterface>
 8004058:	b108      	cbz	r0, 800405e <MX_USB_DEVICE_Init+0x2e>
 800405a:	f7fc fb3b 	bl	80006d4 <Error_Handler>
 800405e:	4805      	ldr	r0, [pc, #20]	@ (8004074 <MX_USB_DEVICE_Init+0x44>)
 8004060:	f7fe fe10 	bl	8002c84 <USBD_Start>
 8004064:	b118      	cbz	r0, 800406e <MX_USB_DEVICE_Init+0x3e>
 8004066:	e8bd 4008 	ldmia.w	sp!, {r3, lr}
 800406a:	f7fc bb33 	b.w	80006d4 <Error_Handler>
 800406e:	bd08      	pop	{r3, pc}
 8004070:	200000e0 	.word	0x200000e0
 8004074:	200041c0 	.word	0x200041c0
 8004078:	20000050 	.word	0x20000050
 800407c:	20000098 	.word	0x20000098

08004080 <CDC_DeInit_FS>:
 8004080:	2000      	movs	r0, #0
 8004082:	4770      	bx	lr

08004084 <CDC_Control_FS>:
 8004084:	2000      	movs	r0, #0
 8004086:	4770      	bx	lr

08004088 <CDC_TransmitCplt_FS>:
 8004088:	2000      	movs	r0, #0
 800408a:	4770      	bx	lr

0800408c <CDC_Receive_FS>:
 800408c:	b510      	push	{r4, lr}
 800408e:	4c05      	ldr	r4, [pc, #20]	@ (80040a4 <CDC_Receive_FS+0x18>)
 8004090:	4601      	mov	r1, r0
 8004092:	4620      	mov	r0, r4
 8004094:	f7fe fd8d 	bl	8002bb2 <USBD_CDC_SetRxBuffer>
 8004098:	4620      	mov	r0, r4
 800409a:	f7fe fdb1 	bl	8002c00 <USBD_CDC_ReceivePacket>
 800409e:	2000      	movs	r0, #0
 80040a0:	bd10      	pop	{r4, pc}
 80040a2:	bf00      	nop
 80040a4:	200041c0 	.word	0x200041c0

080040a8 <CDC_Init_FS>:
 80040a8:	b510      	push	{r4, lr}
 80040aa:	4c06      	ldr	r4, [pc, #24]	@ (80040c4 <CDC_Init_FS+0x1c>)
 80040ac:	4906      	ldr	r1, [pc, #24]	@ (80040c8 <CDC_Init_FS+0x20>)
 80040ae:	2200      	movs	r2, #0
 80040b0:	4620      	mov	r0, r4
 80040b2:	f7fe fd70 	bl	8002b96 <USBD_CDC_SetTxBuffer>
 80040b6:	4905      	ldr	r1, [pc, #20]	@ (80040cc <CDC_Init_FS+0x24>)
 80040b8:	4620      	mov	r0, r4
 80040ba:	f7fe fd7a 	bl	8002bb2 <USBD_CDC_SetRxBuffer>
 80040be:	2000      	movs	r0, #0
 80040c0:	bd10      	pop	{r4, pc}
 80040c2:	bf00      	nop
 80040c4:	200041c0 	.word	0x200041c0
 80040c8:	2000449c 	.word	0x2000449c
 80040cc:	20004c9c 	.word	0x20004c9c

080040d0 <CDC_Transmit_FS>:
 80040d0:	b510      	push	{r4, lr}
 80040d2:	4c09      	ldr	r4, [pc, #36]	@ (80040f8 <CDC_Transmit_FS+0x28>)
 80040d4:	f8d4 32bc 	ldr.w	r3, [r4, #700]	@ 0x2bc
 80040d8:	f8d3 3214 	ldr.w	r3, [r3, #532]	@ 0x214
 80040dc:	460a      	mov	r2, r1
 80040de:	b943      	cbnz	r3, 80040f2 <CDC_Transmit_FS+0x22>
 80040e0:	4601      	mov	r1, r0
 80040e2:	4620      	mov	r0, r4
 80040e4:	f7fe fd57 	bl	8002b96 <USBD_CDC_SetTxBuffer>
 80040e8:	4620      	mov	r0, r4
 80040ea:	e8bd 4010 	ldmia.w	sp!, {r4, lr}
 80040ee:	f7fe bd6c 	b.w	8002bca <USBD_CDC_TransmitPacket>
 80040f2:	2001      	movs	r0, #1
 80040f4:	bd10      	pop	{r4, pc}
 80040f6:	bf00      	nop
 80040f8:	200041c0 	.word	0x200041c0

080040fc <USBD_FS_DeviceDescriptor>:
 80040fc:	2312      	movs	r3, #18
 80040fe:	4801      	ldr	r0, [pc, #4]	@ (8004104 <USBD_FS_DeviceDescriptor+0x8>)
 8004100:	800b      	strh	r3, [r1, #0]
 8004102:	4770      	bx	lr
 8004104:	200000cc 	.word	0x200000cc

08004108 <USBD_FS_LangIDStrDescriptor>:
 8004108:	2304      	movs	r3, #4
 800410a:	4801      	ldr	r0, [pc, #4]	@ (8004110 <USBD_FS_LangIDStrDescriptor+0x8>)
 800410c:	800b      	strh	r3, [r1, #0]
 800410e:	4770      	bx	lr
 8004110:	200000c8 	.word	0x200000c8

08004114 <IntToUnicode>:
 8004114:	2300      	movs	r3, #0
 8004116:	b570      	push	{r4, r5, r6, lr}
 8004118:	1c4d      	adds	r5, r1, #1
 800411a:	461e      	mov	r6, r3
 800411c:	b2dc      	uxtb	r4, r3
 800411e:	42a2      	cmp	r2, r4
 8004120:	d800      	bhi.n	8004124 <IntToUnicode+0x10>
 8004122:	bd70      	pop	{r4, r5, r6, pc}
 8004124:	0f04      	lsrs	r4, r0, #28
 8004126:	f1b0 4f20 	cmp.w	r0, #2684354560	@ 0xa0000000
 800412a:	bf34      	ite	cc
 800412c:	3430      	addcc	r4, #48	@ 0x30
 800412e:	3437      	addcs	r4, #55	@ 0x37
 8004130:	f801 4013 	strb.w	r4, [r1, r3, lsl #1]
 8004134:	0100      	lsls	r0, r0, #4
 8004136:	f805 6013 	strb.w	r6, [r5, r3, lsl #1]
 800413a:	3301      	adds	r3, #1
 800413c:	e7ee      	b.n	800411c <IntToUnicode+0x8>
	...

08004140 <USBD_FS_SerialStrDescriptor>:
 8004140:	231a      	movs	r3, #26
 8004142:	b510      	push	{r4, lr}
 8004144:	800b      	strh	r3, [r1, #0]
 8004146:	4b0a      	ldr	r3, [pc, #40]	@ (8004170 <USBD_FS_SerialStrDescriptor+0x30>)
 8004148:	f8d3 0a10 	ldr.w	r0, [r3, #2576]	@ 0xa10
 800414c:	f8d3 2a18 	ldr.w	r2, [r3, #2584]	@ 0xa18
 8004150:	1880      	adds	r0, r0, r2
 8004152:	d00a      	beq.n	800416a <USBD_FS_SerialStrDescriptor+0x2a>
 8004154:	f8d3 4a14 	ldr.w	r4, [r3, #2580]	@ 0xa14
 8004158:	4906      	ldr	r1, [pc, #24]	@ (8004174 <USBD_FS_SerialStrDescriptor+0x34>)
 800415a:	2208      	movs	r2, #8
 800415c:	f7ff ffda 	bl	8004114 <IntToUnicode>
 8004160:	2204      	movs	r2, #4
 8004162:	3110      	adds	r1, #16
 8004164:	4620      	mov	r0, r4
 8004166:	f7ff ffd5 	bl	8004114 <IntToUnicode>
 800416a:	4803      	ldr	r0, [pc, #12]	@ (8004178 <USBD_FS_SerialStrDescriptor+0x38>)
 800416c:	bd10      	pop	{r4, pc}
 800416e:	bf00      	nop
 8004170:	1fff7000 	.word	0x1fff7000
 8004174:	200000ae 	.word	0x200000ae
 8004178:	200000ac 	.word	0x200000ac

0800417c <USBD_FS_ManufacturerStrDescriptor>:
 800417c:	b510      	push	{r4, lr}
 800417e:	4c04      	ldr	r4, [pc, #16]	@ (8004190 <USBD_FS_ManufacturerStrDescriptor+0x14>)
 8004180:	4804      	ldr	r0, [pc, #16]	@ (8004194 <USBD_FS_ManufacturerStrDescriptor+0x18>)
 8004182:	460a      	mov	r2, r1
 8004184:	4621      	mov	r1, r4
 8004186:	f7ff f91f 	bl	80033c8 <USBD_GetString>
 800418a:	4620      	mov	r0, r4
 800418c:	bd10      	pop	{r4, pc}
 800418e:	bf00      	nop
 8004190:	2000549c 	.word	0x2000549c
 8004194:	08004ec5 	.word	0x08004ec5

08004198 <USBD_FS_ProductStrDescriptor>:
 8004198:	b510      	push	{r4, lr}
 800419a:	4c04      	ldr	r4, [pc, #16]	@ (80041ac <USBD_FS_ProductStrDescriptor+0x14>)
 800419c:	4804      	ldr	r0, [pc, #16]	@ (80041b0 <USBD_FS_ProductStrDescriptor+0x18>)
 800419e:	460a      	mov	r2, r1
 80041a0:	4621      	mov	r1, r4
 80041a2:	f7ff f911 	bl	80033c8 <USBD_GetString>
 80041a6:	4620      	mov	r0, r4
 80041a8:	bd10      	pop	{r4, pc}
 80041aa:	bf00      	nop
 80041ac:	2000549c 	.word	0x2000549c
 80041b0:	08004ed8 	.word	0x08004ed8

080041b4 <USBD_FS_ConfigStrDescriptor>:
 80041b4:	b510      	push	{r4, lr}
 80041b6:	4c04      	ldr	r4, [pc, #16]	@ (80041c8 <USBD_FS_ConfigStrDescriptor+0x14>)
 80041b8:	4804      	ldr	r0, [pc, #16]	@ (80041cc <USBD_FS_ConfigStrDescriptor+0x18>)
 80041ba:	460a      	mov	r2, r1
 80041bc:	4621      	mov	r1, r4
 80041be:	f7ff f903 	bl	80033c8 <USBD_GetString>
 80041c2:	4620      	mov	r0, r4
 80041c4:	bd10      	pop	{r4, pc}
 80041c6:	bf00      	nop
 80041c8:	2000549c 	.word	0x2000549c
 80041cc:	08004eee 	.word	0x08004eee

080041d0 <USBD_FS_InterfaceStrDescriptor>:
 80041d0:	b510      	push	{r4, lr}
 80041d2:	4c04      	ldr	r4, [pc, #16]	@ (80041e4 <USBD_FS_InterfaceStrDescriptor+0x14>)
 80041d4:	4804      	ldr	r0, [pc, #16]	@ (80041e8 <USBD_FS_InterfaceStrDescriptor+0x18>)
 80041d6:	460a      	mov	r2, r1
 80041d8:	4621      	mov	r1, r4
 80041da:	f7ff f8f5 	bl	80033c8 <USBD_GetString>
 80041de:	4620      	mov	r0, r4
 80041e0:	bd10      	pop	{r4, pc}
 80041e2:	bf00      	nop
 80041e4:	2000549c 	.word	0x2000549c
 80041e8:	08004ef9 	.word	0x08004ef9

080041ec <HAL_PCD_MspInit>:
 80041ec:	b530      	push	{r4, r5, lr}
 80041ee:	4604      	mov	r4, r0
 80041f0:	b089      	sub	sp, #36	@ 0x24
 80041f2:	2214      	movs	r2, #20
 80041f4:	2100      	movs	r1, #0
 80041f6:	a803      	add	r0, sp, #12
 80041f8:	f000 fa4e 	bl	8004698 <memset>
 80041fc:	6823      	ldr	r3, [r4, #0]
 80041fe:	f1b3 4fa0 	cmp.w	r3, #1342177280	@ 0x50000000
 8004202:	d12e      	bne.n	8004262 <HAL_PCD_MspInit+0x76>
 8004204:	4c18      	ldr	r4, [pc, #96]	@ (8004268 <HAL_PCD_MspInit+0x7c>)
 8004206:	4819      	ldr	r0, [pc, #100]	@ (800426c <HAL_PCD_MspInit+0x80>)
 8004208:	2500      	movs	r5, #0
 800420a:	9501      	str	r5, [sp, #4]
 800420c:	6b23      	ldr	r3, [r4, #48]	@ 0x30
 800420e:	f043 0301 	orr.w	r3, r3, #1
 8004212:	6323      	str	r3, [r4, #48]	@ 0x30
 8004214:	6b23      	ldr	r3, [r4, #48]	@ 0x30
 8004216:	f003 0301 	and.w	r3, r3, #1
 800421a:	9301      	str	r3, [sp, #4]
 800421c:	f44f 52c0 	mov.w	r2, #6144	@ 0x1800
 8004220:	9b01      	ldr	r3, [sp, #4]
 8004222:	2302      	movs	r3, #2
 8004224:	e9cd 2303 	strd	r2, r3, [sp, #12]
 8004228:	2103      	movs	r1, #3
 800422a:	230a      	movs	r3, #10
 800422c:	e9cd 1306 	strd	r1, r3, [sp, #24]
 8004230:	a903      	add	r1, sp, #12
 8004232:	f7fc fbd3 	bl	80009dc <HAL_GPIO_Init>
 8004236:	6b63      	ldr	r3, [r4, #52]	@ 0x34
 8004238:	f043 0380 	orr.w	r3, r3, #128	@ 0x80
 800423c:	6363      	str	r3, [r4, #52]	@ 0x34
 800423e:	9502      	str	r5, [sp, #8]
 8004240:	6c63      	ldr	r3, [r4, #68]	@ 0x44
 8004242:	f443 4380 	orr.w	r3, r3, #16384	@ 0x4000
 8004246:	6463      	str	r3, [r4, #68]	@ 0x44
 8004248:	6c63      	ldr	r3, [r4, #68]	@ 0x44
 800424a:	f403 4380 	and.w	r3, r3, #16384	@ 0x4000
 800424e:	9302      	str	r3, [sp, #8]
 8004250:	2043      	movs	r0, #67	@ 0x43
 8004252:	462a      	mov	r2, r5
 8004254:	2105      	movs	r1, #5
 8004256:	9b02      	ldr	r3, [sp, #8]
 8004258:	f7fc fb80 	bl	800095c <HAL_NVIC_SetPriority>
 800425c:	2043      	movs	r0, #67	@ 0x43
 800425e:	f7fc fbaf 	bl	80009c0 <HAL_NVIC_EnableIRQ>
 8004262:	b009      	add	sp, #36	@ 0x24
 8004264:	bd30      	pop	{r4, r5, pc}
 8004266:	bf00      	nop
 8004268:	40023800 	.word	0x40023800
 800426c:	40020000 	.word	0x40020000

08004270 <HAL_PCD_SetupStageCallback>:
 8004270:	f200 419c 	addw	r1, r0, #1180	@ 0x49c
 8004274:	f8d0 04e0 	ldr.w	r0, [r0, #1248]	@ 0x4e0
 8004278:	f7fe bd16 	b.w	8002ca8 <USBD_LL_SetupStage>

0800427c <HAL_PCD_DataOutStageCallback>:
 800427c:	2324      	movs	r3, #36	@ 0x24
 800427e:	fb03 0301 	mla	r3, r3, r1, r0
 8004282:	f8d0 04e0 	ldr.w	r0, [r0, #1248]	@ 0x4e0
 8004286:	f8d3 2260 	ldr.w	r2, [r3, #608]	@ 0x260
 800428a:	f7fe bd3d 	b.w	8002d08 <USBD_LL_DataOutStage>

0800428e <HAL_PCD_DataInStageCallback>:
 800428e:	2324      	movs	r3, #36	@ 0x24
 8004290:	fb03 0301 	mla	r3, r3, r1, r0
 8004294:	f8d0 04e0 	ldr.w	r0, [r0, #1248]	@ 0x4e0
 8004298:	6a1a      	ldr	r2, [r3, #32]
 800429a:	f7fe bd6a 	b.w	8002d72 <USBD_LL_DataInStage>

0800429e <HAL_PCD_SOFCallback>:
 800429e:	f8d0 04e0 	ldr.w	r0, [r0, #1248]	@ 0x4e0
 80042a2:	f7fe be04 	b.w	8002eae <USBD_LL_SOF>

080042a6 <HAL_PCD_ResetCallback>:
 80042a6:	b510      	push	{r4, lr}
 80042a8:	79c3      	ldrb	r3, [r0, #7]
 80042aa:	2b02      	cmp	r3, #2
 80042ac:	4604      	mov	r4, r0
 80042ae:	d001      	beq.n	80042b4 <HAL_PCD_ResetCallback+0xe>
 80042b0:	f7fc fa10 	bl	80006d4 <Error_Handler>
 80042b4:	f8d4 04e0 	ldr.w	r0, [r4, #1248]	@ 0x4e0
 80042b8:	2101      	movs	r1, #1
 80042ba:	f7fe fddc 	bl	8002e76 <USBD_LL_SetSpeed>
 80042be:	f8d4 04e0 	ldr.w	r0, [r4, #1248]	@ 0x4e0
 80042c2:	e8bd 4010 	ldmia.w	sp!, {r4, lr}
 80042c6:	f7fe bda7 	b.w	8002e18 <USBD_LL_Reset>
	...

080042cc <HAL_PCD_SuspendCallback>:
 80042cc:	b510      	push	{r4, lr}
 80042ce:	4604      	mov	r4, r0
 80042d0:	f8d0 04e0 	ldr.w	r0, [r0, #1248]	@ 0x4e0
 80042d4:	f7fe fdd2 	bl	8002e7c <USBD_LL_Suspend>
 80042d8:	6822      	ldr	r2, [r4, #0]
 80042da:	f8d2 3e00 	ldr.w	r3, [r2, #3584]	@ 0xe00
 80042de:	f043 0301 	orr.w	r3, r3, #1
 80042e2:	f8c2 3e00 	str.w	r3, [r2, #3584]	@ 0xe00
 80042e6:	7ae3      	ldrb	r3, [r4, #11]
 80042e8:	b123      	cbz	r3, 80042f4 <HAL_PCD_SuspendCallback+0x28>
 80042ea:	4a03      	ldr	r2, [pc, #12]	@ (80042f8 <HAL_PCD_SuspendCallback+0x2c>)
 80042ec:	6913      	ldr	r3, [r2, #16]
 80042ee:	f043 0306 	orr.w	r3, r3, #6
 80042f2:	6113      	str	r3, [r2, #16]
 80042f4:	bd10      	pop	{r4, pc}
 80042f6:	bf00      	nop
 80042f8:	e000ed00 	.word	0xe000ed00

080042fc <HAL_PCD_ResumeCallback>:
 80042fc:	f8d0 04e0 	ldr.w	r0, [r0, #1248]	@ 0x4e0
 8004300:	f7fe bdca 	b.w	8002e98 <USBD_LL_Resume>

08004304 <HAL_PCD_ISOOUTIncompleteCallback>:
 8004304:	f8d0 04e0 	ldr.w	r0, [r0, #1248]	@ 0x4e0
 8004308:	f7fe bdf1 	b.w	8002eee <USBD_LL_IsoOUTIncomplete>

0800430c <HAL_PCD_ISOINIncompleteCallback>:
 800430c:	f8d0 04e0 	ldr.w	r0, [r0, #1248]	@ 0x4e0
 8004310:	f7fe bdda 	b.w	8002ec8 <USBD_LL_IsoINIncomplete>

08004314 <HAL_PCD_ConnectCallback>:
 8004314:	f8d0 04e0 	ldr.w	r0, [r0, #1248]	@ 0x4e0
 8004318:	f7fe bdfc 	b.w	8002f14 <USBD_LL_DevConnected>

0800431c <HAL_PCD_DisconnectCallback>:
 800431c:	f8d0 04e0 	ldr.w	r0, [r0, #1248]	@ 0x4e0
 8004320:	f7fe bdfa 	b.w	8002f18 <USBD_LL_DevDisconnected>

08004324 <USBD_LL_Init>:
 8004324:	b508      	push	{r3, lr}
 8004326:	7802      	ldrb	r2, [r0, #0]
 8004328:	4603      	mov	r3, r0
 800432a:	bb22      	cbnz	r2, 8004376 <USBD_LL_Init+0x52>
 800432c:	4813      	ldr	r0, [pc, #76]	@ (800437c <USBD_LL_Init+0x58>)
 800432e:	f8c0 34e0 	str.w	r3, [r0, #1248]	@ 0x4e0
 8004332:	f8c3 02c8 	str.w	r0, [r3, #712]	@ 0x2c8
 8004336:	f04f 43a0 	mov.w	r3, #1342177280	@ 0x50000000
 800433a:	6003      	str	r3, [r0, #0]
 800433c:	2304      	movs	r3, #4
 800433e:	7103      	strb	r3, [r0, #4]
 8004340:	f44f 7300 	mov.w	r3, #512	@ 0x200
 8004344:	80c3      	strh	r3, [r0, #6]
 8004346:	2302      	movs	r3, #2
 8004348:	7243      	strb	r3, [r0, #9]
 800434a:	8142      	strh	r2, [r0, #10]
 800434c:	7302      	strb	r2, [r0, #12]
 800434e:	81c2      	strh	r2, [r0, #14]
 8004350:	f7fc fc0f 	bl	8000b72 <HAL_PCD_Init>
 8004354:	b108      	cbz	r0, 800435a <USBD_LL_Init+0x36>
 8004356:	f7fc f9bd 	bl	80006d4 <Error_Handler>
 800435a:	2180      	movs	r1, #128	@ 0x80
 800435c:	4807      	ldr	r0, [pc, #28]	@ (800437c <USBD_LL_Init+0x58>)
 800435e:	f7fd f936 	bl	80015ce <HAL_PCDEx_SetRxFiFo>
 8004362:	2240      	movs	r2, #64	@ 0x40
 8004364:	2100      	movs	r1, #0
 8004366:	4805      	ldr	r0, [pc, #20]	@ (800437c <USBD_LL_Init+0x58>)
 8004368:	f7fd f912 	bl	8001590 <HAL_PCDEx_SetTxFiFo>
 800436c:	4803      	ldr	r0, [pc, #12]	@ (800437c <USBD_LL_Init+0x58>)
 800436e:	2280      	movs	r2, #128	@ 0x80
 8004370:	2101      	movs	r1, #1
 8004372:	f7fd f90d 	bl	8001590 <HAL_PCDEx_SetTxFiFo>
 8004376:	2000      	movs	r0, #0
 8004378:	bd08      	pop	{r3, pc}
 800437a:	bf00      	nop
 800437c:	200058bc 	.word	0x200058bc

08004380 <USBD_LL_IsStallEP>:
 8004380:	f011 0f80 	tst.w	r1, #128	@ 0x80
 8004384:	f8d0 32c8 	ldr.w	r3, [r0, #712]	@ 0x2c8
 8004388:	f04f 0224 	mov.w	r2, #36	@ 0x24
 800438c:	bf1b      	ittet	ne
 800438e:	f001 017f 	andne.w	r1, r1, #127	@ 0x7f
 8004392:	fb02 3301 	mlane	r3, r2, r1, r3
 8004396:	fb02 3301 	mlaeq	r3, r2, r1, r3
 800439a:	7d98      	ldrbne	r0, [r3, #22]
 800439c:	bf08      	it	eq
 800439e:	f893 0256 	ldrbeq.w	r0, [r3, #598]	@ 0x256
 80043a2:	4770      	bx	lr

080043a4 <USBD_LL_GetRxDataSize>:
 80043a4:	f8d0 02c8 	ldr.w	r0, [r0, #712]	@ 0x2c8
 80043a8:	f7fc bd09 	b.w	8000dbe <HAL_PCD_EP_GetRxCount>

080043ac <USBD_static_malloc>:
 80043ac:	4800      	ldr	r0, [pc, #0]	@ (80043b0 <USBD_static_malloc+0x4>)
 80043ae:	4770      	bx	lr
 80043b0:	2000569c 	.word	0x2000569c

080043b4 <USBD_static_free>:
 80043b4:	4770      	bx	lr

080043b6 <USBD_Get_USB_Status>:
 80043b6:	b118      	cbz	r0, 80043c0 <USBD_Get_USB_Status+0xa>
 80043b8:	2802      	cmp	r0, #2
 80043ba:	bf0c      	ite	eq
 80043bc:	2001      	moveq	r0, #1
 80043be:	2003      	movne	r0, #3
 80043c0:	4770      	bx	lr

080043c2 <USBD_LL_Start>:
 80043c2:	b508      	push	{r3, lr}
 80043c4:	f8d0 02c8 	ldr.w	r0, [r0, #712]	@ 0x2c8
 80043c8:	f7fc fc42 	bl	8000c50 <HAL_PCD_Start>
 80043cc:	e8bd 4008 	ldmia.w	sp!, {r3, lr}
 80043d0:	f7ff bff1 	b.w	80043b6 <USBD_Get_USB_Status>

080043d4 <USBD_LL_OpenEP>:
 80043d4:	b510      	push	{r4, lr}
 80043d6:	4614      	mov	r4, r2
 80043d8:	f8d0 02c8 	ldr.w	r0, [r0, #712]	@ 0x2c8
 80043dc:	461a      	mov	r2, r3
 80043de:	4623      	mov	r3, r4
 80043e0:	f7fc fc68 	bl	8000cb4 <HAL_PCD_EP_Open>
 80043e4:	e8bd 4010 	ldmia.w	sp!, {r4, lr}
 80043e8:	f7ff bfe5 	b.w	80043b6 <USBD_Get_USB_Status>

080043ec <USBD_LL_CloseEP>:
 80043ec:	b508      	push	{r3, lr}
 80043ee:	f8d0 02c8 	ldr.w	r0, [r0, #712]	@ 0x2c8
 80043f2:	f7fc fc98 	bl	8000d26 <HAL_PCD_EP_Close>
 80043f6:	e8bd 4008 	ldmia.w	sp!, {r3, lr}
 80043fa:	f7ff bfdc 	b.w	80043b6 <USBD_Get_USB_Status>

080043fe <USBD_LL_StallEP>:
 80043fe:	b508      	push	{r3, lr}
 8004400:	f8d0 02c8 	ldr.w	r0, [r0, #712]	@ 0x2c8
 8004404:	f7fc fcfe 	bl	8000e04 <HAL_PCD_EP_SetStall>
 8004408:	e8bd 4008 	ldmia.w	sp!, {r3, lr}
 800440c:	f7ff bfd3 	b.w	80043b6 <USBD_Get_USB_Status>

08004410 <USBD_LL_ClearStallEP>:
 8004410:	b508      	push	{r3, lr}
 8004412:	f8d0 02c8 	ldr.w	r0, [r0, #712]	@ 0x2c8
 8004416:	f7fc fd2c 	bl	8000e72 <HAL_PCD_EP_ClrStall>
 800441a:	e8bd 4008 	ldmia.w	sp!, {r3, lr}
 800441e:	f7ff bfca 	b.w	80043b6 <USBD_Get_USB_Status>

08004422 <USBD_LL_SetUSBAddress>:
 8004422:	b508      	push	{r3, lr}
 8004424:	f8d0 02c8 	ldr.w	r0, [r0, #712]	@ 0x2c8
 8004428:	f7fc fc31 	bl	8000c8e <HAL_PCD_SetAddress>
 800442c:	e8bd 4008 	ldmia.w	sp!, {r3, lr}
 8004430:	f7ff bfc1 	b.w	80043b6 <USBD_Get_USB_Status>

08004434 <USBD_LL_Transmit>:
 8004434:	b508      	push	{r3, lr}
 8004436:	f8d0 02c8 	ldr.w	r0, [r0, #712]	@ 0x2c8
 800443a:	f7fc fcc8 	bl	8000dce <HAL_PCD_EP_Transmit>
 800443e:	e8bd 4008 	ldmia.w	sp!, {r3, lr}
 8004442:	f7ff bfb8 	b.w	80043b6 <USBD_Get_USB_Status>

08004446 <USBD_LL_PrepareReceive>:
 8004446:	b508      	push	{r3, lr}
 8004448:	f8d0 02c8 	ldr.w	r0, [r0, #712]	@ 0x2c8
 800444c:	f7fc fc99 	bl	8000d82 <HAL_PCD_EP_Receive>
 8004450:	e8bd 4008 	ldmia.w	sp!, {r3, lr}
 8004454:	f7ff bfaf 	b.w	80043b6 <USBD_Get_USB_Status>

08004458 <std>:
 8004458:	2300      	movs	r3, #0
 800445a:	b510      	push	{r4, lr}
 800445c:	4604      	mov	r4, r0
 800445e:	e9c0 3300 	strd	r3, r3, [r0]
 8004462:	e9c0 3304 	strd	r3, r3, [r0, #16]
 8004466:	6083      	str	r3, [r0, #8]
 8004468:	8181      	strh	r1, [r0, #12]
 800446a:	6643      	str	r3, [r0, #100]	@ 0x64
 800446c:	81c2      	strh	r2, [r0, #14]
 800446e:	6183      	str	r3, [r0, #24]
 8004470:	4619      	mov	r1, r3
 8004472:	2208      	movs	r2, #8
 8004474:	305c      	adds	r0, #92	@ 0x5c
 8004476:	f000 f90f 	bl	8004698 <memset>
 800447a:	4b0d      	ldr	r3, [pc, #52]	@ (80044b0 <std+0x58>)
 800447c:	6263      	str	r3, [r4, #36]	@ 0x24
 800447e:	4b0d      	ldr	r3, [pc, #52]	@ (80044b4 <std+0x5c>)
 8004480:	62a3      	str	r3, [r4, #40]	@ 0x28
 8004482:	4b0d      	ldr	r3, [pc, #52]	@ (80044b8 <std+0x60>)
 8004484:	62e3      	str	r3, [r4, #44]	@ 0x2c
 8004486:	4b0d      	ldr	r3, [pc, #52]	@ (80044bc <std+0x64>)
 8004488:	6323      	str	r3, [r4, #48]	@ 0x30
 800448a:	4b0d      	ldr	r3, [pc, #52]	@ (80044c0 <std+0x68>)
 800448c:	6224      	str	r4, [r4, #32]
 800448e:	429c      	cmp	r4, r3
 8004490:	d006      	beq.n	80044a0 <std+0x48>
 8004492:	f103 0268 	add.w	r2, r3, #104	@ 0x68
 8004496:	4294      	cmp	r4, r2
 8004498:	d002      	beq.n	80044a0 <std+0x48>
 800449a:	33d0      	adds	r3, #208	@ 0xd0
 800449c:	429c      	cmp	r4, r3
 800449e:	d105      	bne.n	80044ac <std+0x54>
 80044a0:	f104 0058 	add.w	r0, r4, #88	@ 0x58
 80044a4:	e8bd 4010 	ldmia.w	sp!, {r4, lr}
 80044a8:	f000 b97e 	b.w	80047a8 <__retarget_lock_init_recursive>
 80044ac:	bd10      	pop	{r4, pc}
 80044ae:	bf00      	nop
 80044b0:	08004af9 	.word	0x08004af9
 80044b4:	08004b1b 	.word	0x08004b1b
 80044b8:	08004b53 	.word	0x08004b53
 80044bc:	08004b77 	.word	0x08004b77
 80044c0:	20005da0 	.word	0x20005da0

080044c4 <stdio_exit_handler>:
 80044c4:	4a02      	ldr	r2, [pc, #8]	@ (80044d0 <stdio_exit_handler+0xc>)
 80044c6:	4903      	ldr	r1, [pc, #12]	@ (80044d4 <stdio_exit_handler+0x10>)
 80044c8:	4803      	ldr	r0, [pc, #12]	@ (80044d8 <stdio_exit_handler+0x14>)
 80044ca:	f000 b869 	b.w	80045a0 <_fwalk_sglue>
 80044ce:	bf00      	nop
 80044d0:	200000fc 	.word	0x200000fc
 80044d4:	08004a91 	.word	0x08004a91
 80044d8:	2000010c 	.word	0x2000010c

080044dc <cleanup_stdio>:
 80044dc:	6841      	ldr	r1, [r0, #4]
 80044de:	4b0c      	ldr	r3, [pc, #48]	@ (8004510 <cleanup_stdio+0x34>)
 80044e0:	4299      	cmp	r1, r3
 80044e2:	b510      	push	{r4, lr}
 80044e4:	4604      	mov	r4, r0
 80044e6:	d001      	beq.n	80044ec <cleanup_stdio+0x10>
 80044e8:	f000 fad2 	bl	8004a90 <_fflush_r>
 80044ec:	68a1      	ldr	r1, [r4, #8]
 80044ee:	4b09      	ldr	r3, [pc, #36]	@ (8004514 <cleanup_stdio+0x38>)
 80044f0:	4299      	cmp	r1, r3
 80044f2:	d002      	beq.n	80044fa <cleanup_stdio+0x1e>
 80044f4:	4620      	mov	r0, r4
 80044f6:	f000 facb 	bl	8004a90 <_fflush_r>
 80044fa:	68e1      	ldr	r1, [r4, #12]
 80044fc:	4b06      	ldr	r3, [pc, #24]	@ (8004518 <cleanup_stdio+0x3c>)
 80044fe:	4299      	cmp	r1, r3
 8004500:	d004      	beq.n	800450c <cleanup_stdio+0x30>
 8004502:	4620      	mov	r0, r4
 8004504:	e8bd 4010 	ldmia.w	sp!, {r4, lr}
 8004508:	f000 bac2 	b.w	8004a90 <_fflush_r>
 800450c:	bd10      	pop	{r4, pc}
 800450e:	bf00      	nop
 8004510:	20005da0 	.word	0x20005da0
 8004514:	20005e08 	.word	0x20005e08
 8004518:	20005e70 	.word	0x20005e70

0800451c <global_stdio_init.part.0>:
 800451c:	b510      	push	{r4, lr}
 800451e:	4b0b      	ldr	r3, [pc, #44]	@ (800454c <global_stdio_init.part.0+0x30>)
 8004520:	4c0b      	ldr	r4, [pc, #44]	@ (8004550 <global_stdio_init.part.0+0x34>)
 8004522:	4a0c      	ldr	r2, [pc, #48]	@ (8004554 <global_stdio_init.part.0+0x38>)
 8004524:	601a      	str	r2, [r3, #0]
 8004526:	4620      	mov	r0, r4
 8004528:	2200      	movs	r2, #0
 800452a:	2104      	movs	r1, #4
 800452c:	f7ff ff94 	bl	8004458 <std>
 8004530:	f104 0068 	add.w	r0, r4, #104	@ 0x68
 8004534:	2201      	movs	r2, #1
 8004536:	2109      	movs	r1, #9
 8004538:	f7ff ff8e 	bl	8004458 <std>
 800453c:	f104 00d0 	add.w	r0, r4, #208	@ 0xd0
 8004540:	2202      	movs	r2, #2
 8004542:	e8bd 4010 	ldmia.w	sp!, {r4, lr}
 8004546:	2112      	movs	r1, #18
 8004548:	f7ff bf86 	b.w	8004458 <std>
 800454c:	20005ed8 	.word	0x20005ed8
 8004550:	20005da0 	.word	0x20005da0
 8004554:	080044c5 	.word	0x080044c5

08004558 <__sfp_lock_acquire>:
 8004558:	4801      	ldr	r0, [pc, #4]	@ (8004560 <__sfp_lock_acquire+0x8>)
 800455a:	f000 b926 	b.w	80047aa <__retarget_lock_acquire_recursive>
 800455e:	bf00      	nop
 8004560:	20005ee1 	.word	0x20005ee1

08004564 <__sfp_lock_release>:
 8004564:	4801      	ldr	r0, [pc, #4]	@ (800456c <__sfp_lock_release+0x8>)
 8004566:	f000 b921 	b.w	80047ac <__retarget_lock_release_recursive>
 800456a:	bf00      	nop
 800456c:	20005ee1 	.word	0x20005ee1

08004570 <__sinit>:
 8004570:	b510      	push	{r4, lr}
 8004572:	4604      	mov	r4, r0
 8004574:	f7ff fff0 	bl	8004558 <__sfp_lock_acquire>
 8004578:	6a23      	ldr	r3, [r4, #32]
 800457a:	b11b      	cbz	r3, 8004584 <__sinit+0x14>
 800457c:	e8bd 4010 	ldmia.w	sp!, {r4, lr}
 8004580:	f7ff bff0 	b.w	8004564 <__sfp_lock_release>
 8004584:	4b04      	ldr	r3, [pc, #16]	@ (8004598 <__sinit+0x28>)
 8004586:	6223      	str	r3, [r4, #32]
 8004588:	4b04      	ldr	r3, [pc, #16]	@ (800459c <__sinit+0x2c>)
 800458a:	681b      	ldr	r3, [r3, #0]
 800458c:	2b00      	cmp	r3, #0
 800458e:	d1f5      	bne.n	800457c <__sinit+0xc>
 8004590:	f7ff ffc4 	bl	800451c <global_stdio_init.part.0>
 8004594:	e7f2      	b.n	800457c <__sinit+0xc>
 8004596:	bf00      	nop
 8004598:	080044dd 	.word	0x080044dd
 800459c:	20005ed8 	.word	0x20005ed8

080045a0 <_fwalk_sglue>:
 80045a0:	e92d 43f8 	stmdb	sp!, {r3, r4, r5, r6, r7, r8, r9, lr}
 80045a4:	4607      	mov	r7, r0
 80045a6:	4688      	mov	r8, r1
 80045a8:	4614      	mov	r4, r2
 80045aa:	2600      	movs	r6, #0
 80045ac:	e9d4 9501 	ldrd	r9, r5, [r4, #4]
 80045b0:	f1b9 0901 	subs.w	r9, r9, #1
 80045b4:	d505      	bpl.n	80045c2 <_fwalk_sglue+0x22>
 80045b6:	6824      	ldr	r4, [r4, #0]
 80045b8:	2c00      	cmp	r4, #0
 80045ba:	d1f7      	bne.n	80045ac <_fwalk_sglue+0xc>
 80045bc:	4630      	mov	r0, r6
 80045be:	e8bd 83f8 	ldmia.w	sp!, {r3, r4, r5, r6, r7, r8, r9, pc}
 80045c2:	89ab      	ldrh	r3, [r5, #12]
 80045c4:	2b01      	cmp	r3, #1
 80045c6:	d907      	bls.n	80045d8 <_fwalk_sglue+0x38>
 80045c8:	f9b5 300e 	ldrsh.w	r3, [r5, #14]
 80045cc:	3301      	adds	r3, #1
 80045ce:	d003      	beq.n	80045d8 <_fwalk_sglue+0x38>
 80045d0:	4629      	mov	r1, r5
 80045d2:	4638      	mov	r0, r7
 80045d4:	47c0      	blx	r8
 80045d6:	4306      	orrs	r6, r0
 80045d8:	3568      	adds	r5, #104	@ 0x68
 80045da:	e7e9      	b.n	80045b0 <_fwalk_sglue+0x10>

080045dc <_puts_r>:
 80045dc:	6a03      	ldr	r3, [r0, #32]
 80045de:	b570      	push	{r4, r5, r6, lr}
 80045e0:	6884      	ldr	r4, [r0, #8]
 80045e2:	4605      	mov	r5, r0
 80045e4:	460e      	mov	r6, r1
 80045e6:	b90b      	cbnz	r3, 80045ec <_puts_r+0x10>
 80045e8:	f7ff ffc2 	bl	8004570 <__sinit>
 80045ec:	6e63      	ldr	r3, [r4, #100]	@ 0x64
 80045ee:	07db      	lsls	r3, r3, #31
 80045f0:	d405      	bmi.n	80045fe <_puts_r+0x22>
 80045f2:	89a3      	ldrh	r3, [r4, #12]
 80045f4:	0598      	lsls	r0, r3, #22
 80045f6:	d402      	bmi.n	80045fe <_puts_r+0x22>
 80045f8:	6da0      	ldr	r0, [r4, #88]	@ 0x58
 80045fa:	f000 f8d6 	bl	80047aa <__retarget_lock_acquire_recursive>
 80045fe:	89a3      	ldrh	r3, [r4, #12]
 8004600:	0719      	lsls	r1, r3, #28
 8004602:	d502      	bpl.n	800460a <_puts_r+0x2e>
 8004604:	6923      	ldr	r3, [r4, #16]
 8004606:	2b00      	cmp	r3, #0
 8004608:	d135      	bne.n	8004676 <_puts_r+0x9a>
 800460a:	4621      	mov	r1, r4
 800460c:	4628      	mov	r0, r5
 800460e:	f000 faf5 	bl	8004bfc <__swsetup_r>
 8004612:	b380      	cbz	r0, 8004676 <_puts_r+0x9a>
 8004614:	f04f 35ff 	mov.w	r5, #4294967295	@ 0xffffffff
 8004618:	6e63      	ldr	r3, [r4, #100]	@ 0x64
 800461a:	07da      	lsls	r2, r3, #31
 800461c:	d405      	bmi.n	800462a <_puts_r+0x4e>
 800461e:	89a3      	ldrh	r3, [r4, #12]
 8004620:	059b      	lsls	r3, r3, #22
 8004622:	d402      	bmi.n	800462a <_puts_r+0x4e>
 8004624:	6da0      	ldr	r0, [r4, #88]	@ 0x58
 8004626:	f000 f8c1 	bl	80047ac <__retarget_lock_release_recursive>
 800462a:	4628      	mov	r0, r5
 800462c:	bd70      	pop	{r4, r5, r6, pc}
 800462e:	2b00      	cmp	r3, #0
 8004630:	da04      	bge.n	800463c <_puts_r+0x60>
 8004632:	69a2      	ldr	r2, [r4, #24]
 8004634:	429a      	cmp	r2, r3
 8004636:	dc17      	bgt.n	8004668 <_puts_r+0x8c>
 8004638:	290a      	cmp	r1, #10
 800463a:	d015      	beq.n	8004668 <_puts_r+0x8c>
 800463c:	6823      	ldr	r3, [r4, #0]
 800463e:	1c5a      	adds	r2, r3, #1
 8004640:	6022      	str	r2, [r4, #0]
 8004642:	7019      	strb	r1, [r3, #0]
 8004644:	68a3      	ldr	r3, [r4, #8]
 8004646:	f816 1f01 	ldrb.w	r1, [r6, #1]!
 800464a:	3b01      	subs	r3, #1
 800464c:	60a3      	str	r3, [r4, #8]
 800464e:	2900      	cmp	r1, #0
 8004650:	d1ed      	bne.n	800462e <_puts_r+0x52>
 8004652:	2b00      	cmp	r3, #0
 8004654:	da11      	bge.n	800467a <_puts_r+0x9e>
 8004656:	4622      	mov	r2, r4
 8004658:	210a      	movs	r1, #10
 800465a:	4628      	mov	r0, r5
 800465c:	f000 fa8f 	bl	8004b7e <__swbuf_r>
 8004660:	3001      	adds	r0, #1
 8004662:	d0d7      	beq.n	8004614 <_puts_r+0x38>
 8004664:	250a      	movs	r5, #10
 8004666:	e7d7      	b.n	8004618 <_puts_r+0x3c>
 8004668:	4622      	mov	r2, r4
 800466a:	4628      	mov	r0, r5
 800466c:	f000 fa87 	bl	8004b7e <__swbuf_r>
 8004670:	3001      	adds	r0, #1
 8004672:	d1e7      	bne.n	8004644 <_puts_r+0x68>
 8004674:	e7ce      	b.n	8004614 <_puts_r+0x38>
 8004676:	3e01      	subs	r6, #1
 8004678:	e7e4      	b.n	8004644 <_puts_r+0x68>
 800467a:	6823      	ldr	r3, [r4, #0]
 800467c:	1c5a      	adds	r2, r3, #1
 800467e:	6022      	str	r2, [r4, #0]
 8004680:	220a      	movs	r2, #10
 8004682:	701a      	strb	r2, [r3, #0]
 8004684:	e7ee      	b.n	8004664 <_puts_r+0x88>
	...

08004688 <puts>:
 8004688:	4b02      	ldr	r3, [pc, #8]	@ (8004694 <puts+0xc>)
 800468a:	4601      	mov	r1, r0
 800468c:	6818      	ldr	r0, [r3, #0]
 800468e:	f7ff bfa5 	b.w	80045dc <_puts_r>
 8004692:	bf00      	nop
 8004694:	20000108 	.word	0x20000108

08004698 <memset>:
 8004698:	4402      	add	r2, r0
 800469a:	4603      	mov	r3, r0
 800469c:	4293      	cmp	r3, r2
 800469e:	d100      	bne.n	80046a2 <memset+0xa>
 80046a0:	4770      	bx	lr
 80046a2:	f803 1b01 	strb.w	r1, [r3], #1
 80046a6:	e7f9      	b.n	800469c <memset+0x4>

080046a8 <_reclaim_reent>:
 80046a8:	4b29      	ldr	r3, [pc, #164]	@ (8004750 <_reclaim_reent+0xa8>)
 80046aa:	681b      	ldr	r3, [r3, #0]
 80046ac:	4283      	cmp	r3, r0
 80046ae:	b570      	push	{r4, r5, r6, lr}
 80046b0:	4604      	mov	r4, r0
 80046b2:	d04b      	beq.n	800474c <_reclaim_reent+0xa4>
 80046b4:	69c3      	ldr	r3, [r0, #28]
 80046b6:	b1ab      	cbz	r3, 80046e4 <_reclaim_reent+0x3c>
 80046b8:	68db      	ldr	r3, [r3, #12]
 80046ba:	b16b      	cbz	r3, 80046d8 <_reclaim_reent+0x30>
 80046bc:	2500      	movs	r5, #0
 80046be:	69e3      	ldr	r3, [r4, #28]
 80046c0:	68db      	ldr	r3, [r3, #12]
 80046c2:	5959      	ldr	r1, [r3, r5]
 80046c4:	2900      	cmp	r1, #0
 80046c6:	d13b      	bne.n	8004740 <_reclaim_reent+0x98>
 80046c8:	3504      	adds	r5, #4
 80046ca:	2d80      	cmp	r5, #128	@ 0x80
 80046cc:	d1f7      	bne.n	80046be <_reclaim_reent+0x16>
 80046ce:	69e3      	ldr	r3, [r4, #28]
 80046d0:	4620      	mov	r0, r4
 80046d2:	68d9      	ldr	r1, [r3, #12]
 80046d4:	f000 f86c 	bl	80047b0 <_free_r>
 80046d8:	69e3      	ldr	r3, [r4, #28]
 80046da:	6819      	ldr	r1, [r3, #0]
 80046dc:	b111      	cbz	r1, 80046e4 <_reclaim_reent+0x3c>
 80046de:	4620      	mov	r0, r4
 80046e0:	f000 f866 	bl	80047b0 <_free_r>
 80046e4:	6961      	ldr	r1, [r4, #20]
 80046e6:	b111      	cbz	r1, 80046ee <_reclaim_reent+0x46>
 80046e8:	4620      	mov	r0, r4
 80046ea:	f000 f861 	bl	80047b0 <_free_r>
 80046ee:	69e1      	ldr	r1, [r4, #28]
 80046f0:	b111      	cbz	r1, 80046f8 <_reclaim_reent+0x50>
 80046f2:	4620      	mov	r0, r4
 80046f4:	f000 f85c 	bl	80047b0 <_free_r>
 80046f8:	6b21      	ldr	r1, [r4, #48]	@ 0x30
 80046fa:	b111      	cbz	r1, 8004702 <_reclaim_reent+0x5a>
 80046fc:	4620      	mov	r0, r4
 80046fe:	f000 f857 	bl	80047b0 <_free_r>
 8004702:	6b61      	ldr	r1, [r4, #52]	@ 0x34
 8004704:	b111      	cbz	r1, 800470c <_reclaim_reent+0x64>
 8004706:	4620      	mov	r0, r4
 8004708:	f000 f852 	bl	80047b0 <_free_r>
 800470c:	6ba1      	ldr	r1, [r4, #56]	@ 0x38
 800470e:	b111      	cbz	r1, 8004716 <_reclaim_reent+0x6e>
 8004710:	4620      	mov	r0, r4
 8004712:	f000 f84d 	bl	80047b0 <_free_r>
 8004716:	6ca1      	ldr	r1, [r4, #72]	@ 0x48
 8004718:	b111      	cbz	r1, 8004720 <_reclaim_reent+0x78>
 800471a:	4620      	mov	r0, r4
 800471c:	f000 f848 	bl	80047b0 <_free_r>
 8004720:	6c61      	ldr	r1, [r4, #68]	@ 0x44
 8004722:	b111      	cbz	r1, 800472a <_reclaim_reent+0x82>
 8004724:	4620      	mov	r0, r4
 8004726:	f000 f843 	bl	80047b0 <_free_r>
 800472a:	6ae1      	ldr	r1, [r4, #44]	@ 0x2c
 800472c:	b111      	cbz	r1, 8004734 <_reclaim_reent+0x8c>
 800472e:	4620      	mov	r0, r4
 8004730:	f000 f83e 	bl	80047b0 <_free_r>
 8004734:	6a23      	ldr	r3, [r4, #32]
 8004736:	b14b      	cbz	r3, 800474c <_reclaim_reent+0xa4>
 8004738:	4620      	mov	r0, r4
 800473a:	e8bd 4070 	ldmia.w	sp!, {r4, r5, r6, lr}
 800473e:	4718      	bx	r3
 8004740:	680e      	ldr	r6, [r1, #0]
 8004742:	4620      	mov	r0, r4
 8004744:	f000 f834 	bl	80047b0 <_free_r>
 8004748:	4631      	mov	r1, r6
 800474a:	e7bb      	b.n	80046c4 <_reclaim_reent+0x1c>
 800474c:	bd70      	pop	{r4, r5, r6, pc}
 800474e:	bf00      	nop
 8004750:	20000108 	.word	0x20000108

08004754 <__errno>:
 8004754:	4b01      	ldr	r3, [pc, #4]	@ (800475c <__errno+0x8>)
 8004756:	6818      	ldr	r0, [r3, #0]
 8004758:	4770      	bx	lr
 800475a:	bf00      	nop
 800475c:	20000108 	.word	0x20000108

08004760 <__libc_init_array>:
 8004760:	b570      	push	{r4, r5, r6, lr}
 8004762:	4d0d      	ldr	r5, [pc, #52]	@ (8004798 <__libc_init_array+0x38>)
 8004764:	4c0d      	ldr	r4, [pc, #52]	@ (800479c <__libc_init_array+0x3c>)
 8004766:	1b64      	subs	r4, r4, r5
 8004768:	10a4      	asrs	r4, r4, #2
 800476a:	2600      	movs	r6, #0
 800476c:	42a6      	cmp	r6, r4
 800476e:	d109      	bne.n	8004784 <__libc_init_array+0x24>
 8004770:	4d0b      	ldr	r5, [pc, #44]	@ (80047a0 <__libc_init_array+0x40>)
 8004772:	4c0c      	ldr	r4, [pc, #48]	@ (80047a4 <__libc_init_array+0x44>)
 8004774:	f000 fb72 	bl	8004e5c <_init>
 8004778:	1b64      	subs	r4, r4, r5
 800477a:	10a4      	asrs	r4, r4, #2
 800477c:	2600      	movs	r6, #0
 800477e:	42a6      	cmp	r6, r4
 8004780:	d105      	bne.n	800478e <__libc_init_array+0x2e>
 8004782:	bd70      	pop	{r4, r5, r6, pc}
 8004784:	f855 3b04 	ldr.w	r3, [r5], #4
 8004788:	4798      	blx	r3
 800478a:	3601      	adds	r6, #1
 800478c:	e7ee      	b.n	800476c <__libc_init_array+0xc>
 800478e:	f855 3b04 	ldr.w	r3, [r5], #4
 8004792:	4798      	blx	r3
 8004794:	3601      	adds	r6, #1
 8004796:	e7f2      	b.n	800477e <__libc_init_array+0x1e>
 8004798:	08004f10 	.word	0x08004f10
 800479c:	08004f10 	.word	0x08004f10
 80047a0:	08004f10 	.word	0x08004f10
 80047a4:	08004f14 	.word	0x08004f14

080047a8 <__retarget_lock_init_recursive>:
 80047a8:	4770      	bx	lr

080047aa <__retarget_lock_acquire_recursive>:
 80047aa:	4770      	bx	lr

080047ac <__retarget_lock_release_recursive>:
 80047ac:	4770      	bx	lr
	...

080047b0 <_free_r>:
 80047b0:	b538      	push	{r3, r4, r5, lr}
 80047b2:	4605      	mov	r5, r0
 80047b4:	2900      	cmp	r1, #0
 80047b6:	d041      	beq.n	800483c <_free_r+0x8c>
 80047b8:	f851 3c04 	ldr.w	r3, [r1, #-4]
 80047bc:	1f0c      	subs	r4, r1, #4
 80047be:	2b00      	cmp	r3, #0
 80047c0:	bfb8      	it	lt
 80047c2:	18e4      	addlt	r4, r4, r3
 80047c4:	f000 f98c 	bl	8004ae0 <__malloc_lock>
 80047c8:	4a1d      	ldr	r2, [pc, #116]	@ (8004840 <_free_r+0x90>)
 80047ca:	6813      	ldr	r3, [r2, #0]
 80047cc:	b933      	cbnz	r3, 80047dc <_free_r+0x2c>
 80047ce:	6063      	str	r3, [r4, #4]
 80047d0:	6014      	str	r4, [r2, #0]
 80047d2:	4628      	mov	r0, r5
 80047d4:	e8bd 4038 	ldmia.w	sp!, {r3, r4, r5, lr}
 80047d8:	f000 b988 	b.w	8004aec <__malloc_unlock>
 80047dc:	42a3      	cmp	r3, r4
 80047de:	d908      	bls.n	80047f2 <_free_r+0x42>
 80047e0:	6820      	ldr	r0, [r4, #0]
 80047e2:	1821      	adds	r1, r4, r0
 80047e4:	428b      	cmp	r3, r1
 80047e6:	bf01      	itttt	eq
 80047e8:	6819      	ldreq	r1, [r3, #0]
 80047ea:	685b      	ldreq	r3, [r3, #4]
 80047ec:	1809      	addeq	r1, r1, r0
 80047ee:	6021      	streq	r1, [r4, #0]
 80047f0:	e7ed      	b.n	80047ce <_free_r+0x1e>
 80047f2:	461a      	mov	r2, r3
 80047f4:	685b      	ldr	r3, [r3, #4]
 80047f6:	b10b      	cbz	r3, 80047fc <_free_r+0x4c>
 80047f8:	42a3      	cmp	r3, r4
 80047fa:	d9fa      	bls.n	80047f2 <_free_r+0x42>
 80047fc:	6811      	ldr	r1, [r2, #0]
 80047fe:	1850      	adds	r0, r2, r1
 8004800:	42a0      	cmp	r0, r4
 8004802:	d10b      	bne.n	800481c <_free_r+0x6c>
 8004804:	6820      	ldr	r0, [r4, #0]
 8004806:	4401      	add	r1, r0
 8004808:	1850      	adds	r0, r2, r1
 800480a:	4283      	cmp	r3, r0
 800480c:	6011      	str	r1, [r2, #0]
 800480e:	d1e0      	bne.n	80047d2 <_free_r+0x22>
 8004810:	6818      	ldr	r0, [r3, #0]
 8004812:	685b      	ldr	r3, [r3, #4]
 8004814:	6053      	str	r3, [r2, #4]
 8004816:	4408      	add	r0, r1
 8004818:	6010      	str	r0, [r2, #0]
 800481a:	e7da      	b.n	80047d2 <_free_r+0x22>
 800481c:	d902      	bls.n	8004824 <_free_r+0x74>
 800481e:	230c      	movs	r3, #12
 8004820:	602b      	str	r3, [r5, #0]
 8004822:	e7d6      	b.n	80047d2 <_free_r+0x22>
 8004824:	6820      	ldr	r0, [r4, #0]
 8004826:	1821      	adds	r1, r4, r0
 8004828:	428b      	cmp	r3, r1
 800482a:	bf04      	itt	eq
 800482c:	6819      	ldreq	r1, [r3, #0]
 800482e:	685b      	ldreq	r3, [r3, #4]
 8004830:	6063      	str	r3, [r4, #4]
 8004832:	bf04      	itt	eq
 8004834:	1809      	addeq	r1, r1, r0
 8004836:	6021      	streq	r1, [r4, #0]
 8004838:	6054      	str	r4, [r2, #4]
 800483a:	e7ca      	b.n	80047d2 <_free_r+0x22>
 800483c:	bd38      	pop	{r3, r4, r5, pc}
 800483e:	bf00      	nop
 8004840:	20005ee8 	.word	0x20005ee8

08004844 <sbrk_aligned>:
 8004844:	b570      	push	{r4, r5, r6, lr}
 8004846:	4e0f      	ldr	r6, [pc, #60]	@ (8004884 <sbrk_aligned+0x40>)
 8004848:	460c      	mov	r4, r1
 800484a:	6831      	ldr	r1, [r6, #0]
 800484c:	4605      	mov	r5, r0
 800484e:	b911      	cbnz	r1, 8004856 <sbrk_aligned+0x12>
 8004850:	f000 fae2 	bl	8004e18 <_sbrk_r>
 8004854:	6030      	str	r0, [r6, #0]
 8004856:	4621      	mov	r1, r4
 8004858:	4628      	mov	r0, r5
 800485a:	f000 fadd 	bl	8004e18 <_sbrk_r>
 800485e:	1c43      	adds	r3, r0, #1
 8004860:	d103      	bne.n	800486a <sbrk_aligned+0x26>
 8004862:	f04f 34ff 	mov.w	r4, #4294967295	@ 0xffffffff
 8004866:	4620      	mov	r0, r4
 8004868:	bd70      	pop	{r4, r5, r6, pc}
 800486a:	1cc4      	adds	r4, r0, #3
 800486c:	f024 0403 	bic.w	r4, r4, #3
 8004870:	42a0      	cmp	r0, r4
 8004872:	d0f8      	beq.n	8004866 <sbrk_aligned+0x22>
 8004874:	1a21      	subs	r1, r4, r0
 8004876:	4628      	mov	r0, r5
 8004878:	f000 face 	bl	8004e18 <_sbrk_r>
 800487c:	3001      	adds	r0, #1
 800487e:	d1f2      	bne.n	8004866 <sbrk_aligned+0x22>
 8004880:	e7ef      	b.n	8004862 <sbrk_aligned+0x1e>
 8004882:	bf00      	nop
 8004884:	20005ee4 	.word	0x20005ee4

08004888 <_malloc_r>:
 8004888:	e92d 43f8 	stmdb	sp!, {r3, r4, r5, r6, r7, r8, r9, lr}
 800488c:	1ccd      	adds	r5, r1, #3
 800488e:	f025 0503 	bic.w	r5, r5, #3
 8004892:	3508      	adds	r5, #8
 8004894:	2d0c      	cmp	r5, #12
 8004896:	bf38      	it	cc
 8004898:	250c      	movcc	r5, #12
 800489a:	2d00      	cmp	r5, #0
 800489c:	4606      	mov	r6, r0
 800489e:	db01      	blt.n	80048a4 <_malloc_r+0x1c>
 80048a0:	42a9      	cmp	r1, r5
 80048a2:	d904      	bls.n	80048ae <_malloc_r+0x26>
 80048a4:	230c      	movs	r3, #12
 80048a6:	6033      	str	r3, [r6, #0]
 80048a8:	2000      	movs	r0, #0
 80048aa:	e8bd 83f8 	ldmia.w	sp!, {r3, r4, r5, r6, r7, r8, r9, pc}
 80048ae:	f8df 80d4 	ldr.w	r8, [pc, #212]	@ 8004984 <_malloc_r+0xfc>
 80048b2:	f000 f915 	bl	8004ae0 <__malloc_lock>
 80048b6:	f8d8 3000 	ldr.w	r3, [r8]
 80048ba:	461c      	mov	r4, r3
 80048bc:	bb44      	cbnz	r4, 8004910 <_malloc_r+0x88>
 80048be:	4629      	mov	r1, r5
 80048c0:	4630      	mov	r0, r6
 80048c2:	f7ff ffbf 	bl	8004844 <sbrk_aligned>
 80048c6:	1c43      	adds	r3, r0, #1
 80048c8:	4604      	mov	r4, r0
 80048ca:	d158      	bne.n	800497e <_malloc_r+0xf6>
 80048cc:	f8d8 4000 	ldr.w	r4, [r8]
 80048d0:	4627      	mov	r7, r4
 80048d2:	2f00      	cmp	r7, #0
 80048d4:	d143      	bne.n	800495e <_malloc_r+0xd6>
 80048d6:	2c00      	cmp	r4, #0
 80048d8:	d04b      	beq.n	8004972 <_malloc_r+0xea>
 80048da:	6823      	ldr	r3, [r4, #0]
 80048dc:	4639      	mov	r1, r7
 80048de:	4630      	mov	r0, r6
 80048e0:	eb04 0903 	add.w	r9, r4, r3
 80048e4:	f000 fa98 	bl	8004e18 <_sbrk_r>
 80048e8:	4581      	cmp	r9, r0
 80048ea:	d142      	bne.n	8004972 <_malloc_r+0xea>
 80048ec:	6821      	ldr	r1, [r4, #0]
 80048ee:	1a6d      	subs	r5, r5, r1
 80048f0:	4629      	mov	r1, r5
 80048f2:	4630      	mov	r0, r6
 80048f4:	f7ff ffa6 	bl	8004844 <sbrk_aligned>
 80048f8:	3001      	adds	r0, #1
 80048fa:	d03a      	beq.n	8004972 <_malloc_r+0xea>
 80048fc:	6823      	ldr	r3, [r4, #0]
 80048fe:	442b      	add	r3, r5
 8004900:	6023      	str	r3, [r4, #0]
 8004902:	f8d8 3000 	ldr.w	r3, [r8]
 8004906:	685a      	ldr	r2, [r3, #4]
 8004908:	bb62      	cbnz	r2, 8004964 <_malloc_r+0xdc>
 800490a:	f8c8 7000 	str.w	r7, [r8]
 800490e:	e00f      	b.n	8004930 <_malloc_r+0xa8>
 8004910:	6822      	ldr	r2, [r4, #0]
 8004912:	1b52      	subs	r2, r2, r5
 8004914:	d420      	bmi.n	8004958 <_malloc_r+0xd0>
 8004916:	2a0b      	cmp	r2, #11
 8004918:	d917      	bls.n	800494a <_malloc_r+0xc2>
 800491a:	1961      	adds	r1, r4, r5
 800491c:	42a3      	cmp	r3, r4
 800491e:	6025      	str	r5, [r4, #0]
 8004920:	bf18      	it	ne
 8004922:	6059      	strne	r1, [r3, #4]
 8004924:	6863      	ldr	r3, [r4, #4]
 8004926:	bf08      	it	eq
 8004928:	f8c8 1000 	streq.w	r1, [r8]
 800492c:	5162      	str	r2, [r4, r5]
 800492e:	604b      	str	r3, [r1, #4]
 8004930:	4630      	mov	r0, r6
 8004932:	f000 f8db 	bl	8004aec <__malloc_unlock>
 8004936:	f104 000b 	add.w	r0, r4, #11
 800493a:	1d23      	adds	r3, r4, #4
 800493c:	f020 0007 	bic.w	r0, r0, #7
 8004940:	1ac2      	subs	r2, r0, r3
 8004942:	bf1c      	itt	ne
 8004944:	1a1b      	subne	r3, r3, r0
 8004946:	50a3      	strne	r3, [r4, r2]
 8004948:	e7af      	b.n	80048aa <_malloc_r+0x22>
 800494a:	6862      	ldr	r2, [r4, #4]
 800494c:	42a3      	cmp	r3, r4
 800494e:	bf0c      	ite	eq
 8004950:	f8c8 2000 	streq.w	r2, [r8]
 8004954:	605a      	strne	r2, [r3, #4]
 8004956:	e7eb      	b.n	8004930 <_malloc_r+0xa8>
 8004958:	4623      	mov	r3, r4
 800495a:	6864      	ldr	r4, [r4, #4]
 800495c:	e7ae      	b.n	80048bc <_malloc_r+0x34>
 800495e:	463c      	mov	r4, r7
 8004960:	687f      	ldr	r7, [r7, #4]
 8004962:	e7b6      	b.n	80048d2 <_malloc_r+0x4a>
 8004964:	461a      	mov	r2, r3
 8004966:	685b      	ldr	r3, [r3, #4]
 8004968:	42a3      	cmp	r3, r4
 800496a:	d1fb      	bne.n	8004964 <_malloc_r+0xdc>
 800496c:	2300      	movs	r3, #0
 800496e:	6053      	str	r3, [r2, #4]
 8004970:	e7de      	b.n	8004930 <_malloc_r+0xa8>
 8004972:	230c      	movs	r3, #12
 8004974:	6033      	str	r3, [r6, #0]
 8004976:	4630      	mov	r0, r6
 8004978:	f000 f8b8 	bl	8004aec <__malloc_unlock>
 800497c:	e794      	b.n	80048a8 <_malloc_r+0x20>
 800497e:	6005      	str	r5, [r0, #0]
 8004980:	e7d6      	b.n	8004930 <_malloc_r+0xa8>
 8004982:	bf00      	nop
 8004984:	20005ee8 	.word	0x20005ee8

08004988 <__sflush_r>:
 8004988:	f9b1 200c 	ldrsh.w	r2, [r1, #12]
 800498c:	e92d 41f0 	stmdb	sp!, {r4, r5, r6, r7, r8, lr}
 8004990:	0716      	lsls	r6, r2, #28
 8004992:	4605      	mov	r5, r0
 8004994:	460c      	mov	r4, r1
 8004996:	d454      	bmi.n	8004a42 <__sflush_r+0xba>
 8004998:	684b      	ldr	r3, [r1, #4]
 800499a:	2b00      	cmp	r3, #0
 800499c:	dc02      	bgt.n	80049a4 <__sflush_r+0x1c>
 800499e:	6c0b      	ldr	r3, [r1, #64]	@ 0x40
 80049a0:	2b00      	cmp	r3, #0
 80049a2:	dd48      	ble.n	8004a36 <__sflush_r+0xae>
 80049a4:	6ae6      	ldr	r6, [r4, #44]	@ 0x2c
 80049a6:	2e00      	cmp	r6, #0
 80049a8:	d045      	beq.n	8004a36 <__sflush_r+0xae>
 80049aa:	2300      	movs	r3, #0
 80049ac:	f412 5280 	ands.w	r2, r2, #4096	@ 0x1000
 80049b0:	682f      	ldr	r7, [r5, #0]
 80049b2:	6a21      	ldr	r1, [r4, #32]
 80049b4:	602b      	str	r3, [r5, #0]
 80049b6:	d030      	beq.n	8004a1a <__sflush_r+0x92>
 80049b8:	6d62      	ldr	r2, [r4, #84]	@ 0x54
 80049ba:	89a3      	ldrh	r3, [r4, #12]
 80049bc:	0759      	lsls	r1, r3, #29
 80049be:	d505      	bpl.n	80049cc <__sflush_r+0x44>
 80049c0:	6863      	ldr	r3, [r4, #4]
 80049c2:	1ad2      	subs	r2, r2, r3
 80049c4:	6b63      	ldr	r3, [r4, #52]	@ 0x34
 80049c6:	b10b      	cbz	r3, 80049cc <__sflush_r+0x44>
 80049c8:	6c23      	ldr	r3, [r4, #64]	@ 0x40
 80049ca:	1ad2      	subs	r2, r2, r3
 80049cc:	2300      	movs	r3, #0
 80049ce:	6ae6      	ldr	r6, [r4, #44]	@ 0x2c
 80049d0:	6a21      	ldr	r1, [r4, #32]
 80049d2:	4628      	mov	r0, r5
 80049d4:	47b0      	blx	r6
 80049d6:	1c43      	adds	r3, r0, #1
 80049d8:	89a3      	ldrh	r3, [r4, #12]
 80049da:	d106      	bne.n	80049ea <__sflush_r+0x62>
 80049dc:	6829      	ldr	r1, [r5, #0]
 80049de:	291d      	cmp	r1, #29
 80049e0:	d82b      	bhi.n	8004a3a <__sflush_r+0xb2>
 80049e2:	4a2a      	ldr	r2, [pc, #168]	@ (8004a8c <__sflush_r+0x104>)
 80049e4:	410a      	asrs	r2, r1
 80049e6:	07d6      	lsls	r6, r2, #31
 80049e8:	d427      	bmi.n	8004a3a <__sflush_r+0xb2>
 80049ea:	2200      	movs	r2, #0
 80049ec:	6062      	str	r2, [r4, #4]
 80049ee:	04d9      	lsls	r1, r3, #19
 80049f0:	6922      	ldr	r2, [r4, #16]
 80049f2:	6022      	str	r2, [r4, #0]
 80049f4:	d504      	bpl.n	8004a00 <__sflush_r+0x78>
 80049f6:	1c42      	adds	r2, r0, #1
 80049f8:	d101      	bne.n	80049fe <__sflush_r+0x76>
 80049fa:	682b      	ldr	r3, [r5, #0]
 80049fc:	b903      	cbnz	r3, 8004a00 <__sflush_r+0x78>
 80049fe:	6560      	str	r0, [r4, #84]	@ 0x54
 8004a00:	6b61      	ldr	r1, [r4, #52]	@ 0x34
 8004a02:	602f      	str	r7, [r5, #0]
 8004a04:	b1b9      	cbz	r1, 8004a36 <__sflush_r+0xae>
 8004a06:	f104 0344 	add.w	r3, r4, #68	@ 0x44
 8004a0a:	4299      	cmp	r1, r3
 8004a0c:	d002      	beq.n	8004a14 <__sflush_r+0x8c>
 8004a0e:	4628      	mov	r0, r5
 8004a10:	f7ff fece 	bl	80047b0 <_free_r>
 8004a14:	2300      	movs	r3, #0
 8004a16:	6363      	str	r3, [r4, #52]	@ 0x34
 8004a18:	e00d      	b.n	8004a36 <__sflush_r+0xae>
 8004a1a:	2301      	movs	r3, #1
 8004a1c:	4628      	mov	r0, r5
 8004a1e:	47b0      	blx	r6
 8004a20:	4602      	mov	r2, r0
 8004a22:	1c50      	adds	r0, r2, #1
 8004a24:	d1c9      	bne.n	80049ba <__sflush_r+0x32>
 8004a26:	682b      	ldr	r3, [r5, #0]
 8004a28:	2b00      	cmp	r3, #0
 8004a2a:	d0c6      	beq.n	80049ba <__sflush_r+0x32>
 8004a2c:	2b1d      	cmp	r3, #29
 8004a2e:	d001      	beq.n	8004a34 <__sflush_r+0xac>
 8004a30:	2b16      	cmp	r3, #22
 8004a32:	d11e      	bne.n	8004a72 <__sflush_r+0xea>
 8004a34:	602f      	str	r7, [r5, #0]
 8004a36:	2000      	movs	r0, #0
 8004a38:	e022      	b.n	8004a80 <__sflush_r+0xf8>
 8004a3a:	f043 0340 	orr.w	r3, r3, #64	@ 0x40
 8004a3e:	b21b      	sxth	r3, r3
 8004a40:	e01b      	b.n	8004a7a <__sflush_r+0xf2>
 8004a42:	690f      	ldr	r7, [r1, #16]
 8004a44:	2f00      	cmp	r7, #0
 8004a46:	d0f6      	beq.n	8004a36 <__sflush_r+0xae>
 8004a48:	0793      	lsls	r3, r2, #30
 8004a4a:	680e      	ldr	r6, [r1, #0]
 8004a4c:	bf08      	it	eq
 8004a4e:	694b      	ldreq	r3, [r1, #20]
 8004a50:	600f      	str	r7, [r1, #0]
 8004a52:	bf18      	it	ne
 8004a54:	2300      	movne	r3, #0
 8004a56:	eba6 0807 	sub.w	r8, r6, r7
 8004a5a:	608b      	str	r3, [r1, #8]
 8004a5c:	f1b8 0f00 	cmp.w	r8, #0
 8004a60:	dde9      	ble.n	8004a36 <__sflush_r+0xae>
 8004a62:	6a21      	ldr	r1, [r4, #32]
 8004a64:	6aa6      	ldr	r6, [r4, #40]	@ 0x28
 8004a66:	4643      	mov	r3, r8
 8004a68:	463a      	mov	r2, r7
 8004a6a:	4628      	mov	r0, r5
 8004a6c:	47b0      	blx	r6
 8004a6e:	2800      	cmp	r0, #0
 8004a70:	dc08      	bgt.n	8004a84 <__sflush_r+0xfc>
 8004a72:	f9b4 300c 	ldrsh.w	r3, [r4, #12]
 8004a76:	f043 0340 	orr.w	r3, r3, #64	@ 0x40
 8004a7a:	81a3      	strh	r3, [r4, #12]
 8004a7c:	f04f 30ff 	mov.w	r0, #4294967295	@ 0xffffffff
 8004a80:	e8bd 81f0 	ldmia.w	sp!, {r4, r5, r6, r7, r8, pc}
 8004a84:	4407      	add	r7, r0
 8004a86:	eba8 0800 	sub.w	r8, r8, r0
 8004a8a:	e7e7      	b.n	8004a5c <__sflush_r+0xd4>
 8004a8c:	dfbffffe 	.word	0xdfbffffe

08004a90 <_fflush_r>:
 8004a90:	b538      	push	{r3, r4, r5, lr}
 8004a92:	690b      	ldr	r3, [r1, #16]
 8004a94:	4605      	mov	r5, r0
 8004a96:	460c      	mov	r4, r1
 8004a98:	b913      	cbnz	r3, 8004aa0 <_fflush_r+0x10>
 8004a9a:	2500      	movs	r5, #0
 8004a9c:	4628      	mov	r0, r5
 8004a9e:	bd38      	pop	{r3, r4, r5, pc}
 8004aa0:	b118      	cbz	r0, 8004aaa <_fflush_r+0x1a>
 8004aa2:	6a03      	ldr	r3, [r0, #32]
 8004aa4:	b90b      	cbnz	r3, 8004aaa <_fflush_r+0x1a>
 8004aa6:	f7ff fd63 	bl	8004570 <__sinit>
 8004aaa:	f9b4 300c 	ldrsh.w	r3, [r4, #12]
 8004aae:	2b00      	cmp	r3, #0
 8004ab0:	d0f3      	beq.n	8004a9a <_fflush_r+0xa>
 8004ab2:	6e62      	ldr	r2, [r4, #100]	@ 0x64
 8004ab4:	07d0      	lsls	r0, r2, #31
 8004ab6:	d404      	bmi.n	8004ac2 <_fflush_r+0x32>
 8004ab8:	0599      	lsls	r1, r3, #22
 8004aba:	d402      	bmi.n	8004ac2 <_fflush_r+0x32>
 8004abc:	6da0      	ldr	r0, [r4, #88]	@ 0x58
 8004abe:	f7ff fe74 	bl	80047aa <__retarget_lock_acquire_recursive>
 8004ac2:	4628      	mov	r0, r5
 8004ac4:	4621      	mov	r1, r4
 8004ac6:	f7ff ff5f 	bl	8004988 <__sflush_r>
 8004aca:	6e63      	ldr	r3, [r4, #100]	@ 0x64
 8004acc:	07da      	lsls	r2, r3, #31
 8004ace:	4605      	mov	r5, r0
 8004ad0:	d4e4      	bmi.n	8004a9c <_fflush_r+0xc>
 8004ad2:	89a3      	ldrh	r3, [r4, #12]
 8004ad4:	059b      	lsls	r3, r3, #22
 8004ad6:	d4e1      	bmi.n	8004a9c <_fflush_r+0xc>
 8004ad8:	6da0      	ldr	r0, [r4, #88]	@ 0x58
 8004ada:	f7ff fe67 	bl	80047ac <__retarget_lock_release_recursive>
 8004ade:	e7dd      	b.n	8004a9c <_fflush_r+0xc>

08004ae0 <__malloc_lock>:
 8004ae0:	4801      	ldr	r0, [pc, #4]	@ (8004ae8 <__malloc_lock+0x8>)
 8004ae2:	f7ff be62 	b.w	80047aa <__retarget_lock_acquire_recursive>
 8004ae6:	bf00      	nop
 8004ae8:	20005ee0 	.word	0x20005ee0

08004aec <__malloc_unlock>:
 8004aec:	4801      	ldr	r0, [pc, #4]	@ (8004af4 <__malloc_unlock+0x8>)
 8004aee:	f7ff be5d 	b.w	80047ac <__retarget_lock_release_recursive>
 8004af2:	bf00      	nop
 8004af4:	20005ee0 	.word	0x20005ee0

08004af8 <__sread>:
 8004af8:	b510      	push	{r4, lr}
 8004afa:	460c      	mov	r4, r1
 8004afc:	f9b1 100e 	ldrsh.w	r1, [r1, #14]
 8004b00:	f000 f978 	bl	8004df4 <_read_r>
 8004b04:	2800      	cmp	r0, #0
 8004b06:	bfab      	itete	ge
 8004b08:	6d63      	ldrge	r3, [r4, #84]	@ 0x54
 8004b0a:	89a3      	ldrhlt	r3, [r4, #12]
 8004b0c:	181b      	addge	r3, r3, r0
 8004b0e:	f423 5380 	biclt.w	r3, r3, #4096	@ 0x1000
 8004b12:	bfac      	ite	ge
 8004b14:	6563      	strge	r3, [r4, #84]	@ 0x54
 8004b16:	81a3      	strhlt	r3, [r4, #12]
 8004b18:	bd10      	pop	{r4, pc}

08004b1a <__swrite>:
 8004b1a:	e92d 41f0 	stmdb	sp!, {r4, r5, r6, r7, r8, lr}
 8004b1e:	461f      	mov	r7, r3
 8004b20:	898b      	ldrh	r3, [r1, #12]
 8004b22:	05db      	lsls	r3, r3, #23
 8004b24:	4605      	mov	r5, r0
 8004b26:	460c      	mov	r4, r1
 8004b28:	4616      	mov	r6, r2
 8004b2a:	d505      	bpl.n	8004b38 <__swrite+0x1e>
 8004b2c:	f9b1 100e 	ldrsh.w	r1, [r1, #14]
 8004b30:	2302      	movs	r3, #2
 8004b32:	2200      	movs	r2, #0
 8004b34:	f000 f94c 	bl	8004dd0 <_lseek_r>
 8004b38:	89a3      	ldrh	r3, [r4, #12]
 8004b3a:	f9b4 100e 	ldrsh.w	r1, [r4, #14]
 8004b3e:	f423 5380 	bic.w	r3, r3, #4096	@ 0x1000
 8004b42:	81a3      	strh	r3, [r4, #12]
 8004b44:	4632      	mov	r2, r6
 8004b46:	463b      	mov	r3, r7
 8004b48:	4628      	mov	r0, r5
 8004b4a:	e8bd 41f0 	ldmia.w	sp!, {r4, r5, r6, r7, r8, lr}
 8004b4e:	f000 b973 	b.w	8004e38 <_write_r>

08004b52 <__sseek>:
 8004b52:	b510      	push	{r4, lr}
 8004b54:	460c      	mov	r4, r1
 8004b56:	f9b1 100e 	ldrsh.w	r1, [r1, #14]
 8004b5a:	f000 f939 	bl	8004dd0 <_lseek_r>
 8004b5e:	1c43      	adds	r3, r0, #1
 8004b60:	89a3      	ldrh	r3, [r4, #12]
 8004b62:	bf15      	itete	ne
 8004b64:	6560      	strne	r0, [r4, #84]	@ 0x54
 8004b66:	f423 5380 	biceq.w	r3, r3, #4096	@ 0x1000
 8004b6a:	f443 5380 	orrne.w	r3, r3, #4096	@ 0x1000
 8004b6e:	81a3      	strheq	r3, [r4, #12]
 8004b70:	bf18      	it	ne
 8004b72:	81a3      	strhne	r3, [r4, #12]
 8004b74:	bd10      	pop	{r4, pc}

08004b76 <__sclose>:
 8004b76:	f9b1 100e 	ldrsh.w	r1, [r1, #14]
 8004b7a:	f000 b8f7 	b.w	8004d6c <_close_r>

08004b7e <__swbuf_r>:
 8004b7e:	b5f8      	push	{r3, r4, r5, r6, r7, lr}
 8004b80:	460e      	mov	r6, r1
 8004b82:	4614      	mov	r4, r2
 8004b84:	4605      	mov	r5, r0
 8004b86:	b118      	cbz	r0, 8004b90 <__swbuf_r+0x12>
 8004b88:	6a03      	ldr	r3, [r0, #32]
 8004b8a:	b90b      	cbnz	r3, 8004b90 <__swbuf_r+0x12>
 8004b8c:	f7ff fcf0 	bl	8004570 <__sinit>
 8004b90:	69a3      	ldr	r3, [r4, #24]
 8004b92:	60a3      	str	r3, [r4, #8]
 8004b94:	89a3      	ldrh	r3, [r4, #12]
 8004b96:	071a      	lsls	r2, r3, #28
 8004b98:	d501      	bpl.n	8004b9e <__swbuf_r+0x20>
 8004b9a:	6923      	ldr	r3, [r4, #16]
 8004b9c:	b943      	cbnz	r3, 8004bb0 <__swbuf_r+0x32>
 8004b9e:	4621      	mov	r1, r4
 8004ba0:	4628      	mov	r0, r5
 8004ba2:	f000 f82b 	bl	8004bfc <__swsetup_r>
 8004ba6:	b118      	cbz	r0, 8004bb0 <__swbuf_r+0x32>
 8004ba8:	f04f 37ff 	mov.w	r7, #4294967295	@ 0xffffffff
 8004bac:	4638      	mov	r0, r7
 8004bae:	bdf8      	pop	{r3, r4, r5, r6, r7, pc}
 8004bb0:	6823      	ldr	r3, [r4, #0]
 8004bb2:	6922      	ldr	r2, [r4, #16]
 8004bb4:	1a98      	subs	r0, r3, r2
 8004bb6:	6963      	ldr	r3, [r4, #20]
 8004bb8:	b2f6      	uxtb	r6, r6
 8004bba:	4283      	cmp	r3, r0
 8004bbc:	4637      	mov	r7, r6
 8004bbe:	dc05      	bgt.n	8004bcc <__swbuf_r+0x4e>
 8004bc0:	4621      	mov	r1, r4
 8004bc2:	4628      	mov	r0, r5
 8004bc4:	f7ff ff64 	bl	8004a90 <_fflush_r>
 8004bc8:	2800      	cmp	r0, #0
 8004bca:	d1ed      	bne.n	8004ba8 <__swbuf_r+0x2a>
 8004bcc:	68a3      	ldr	r3, [r4, #8]
 8004bce:	3b01      	subs	r3, #1
 8004bd0:	60a3      	str	r3, [r4, #8]
 8004bd2:	6823      	ldr	r3, [r4, #0]
 8004bd4:	1c5a      	adds	r2, r3, #1
 8004bd6:	6022      	str	r2, [r4, #0]
 8004bd8:	701e      	strb	r6, [r3, #0]
 8004bda:	6962      	ldr	r2, [r4, #20]
 8004bdc:	1c43      	adds	r3, r0, #1
 8004bde:	429a      	cmp	r2, r3
 8004be0:	d004      	beq.n	8004bec <__swbuf_r+0x6e>
 8004be2:	89a3      	ldrh	r3, [r4, #12]
 8004be4:	07db      	lsls	r3, r3, #31
 8004be6:	d5e1      	bpl.n	8004bac <__swbuf_r+0x2e>
 8004be8:	2e0a      	cmp	r6, #10
 8004bea:	d1df      	bne.n	8004bac <__swbuf_r+0x2e>
 8004bec:	4621      	mov	r1, r4
 8004bee:	4628      	mov	r0, r5
 8004bf0:	f7ff ff4e 	bl	8004a90 <_fflush_r>
 8004bf4:	2800      	cmp	r0, #0
 8004bf6:	d0d9      	beq.n	8004bac <__swbuf_r+0x2e>
 8004bf8:	e7d6      	b.n	8004ba8 <__swbuf_r+0x2a>
	...

08004bfc <__swsetup_r>:
 8004bfc:	b538      	push	{r3, r4, r5, lr}
 8004bfe:	4b29      	ldr	r3, [pc, #164]	@ (8004ca4 <__swsetup_r+0xa8>)
 8004c00:	4605      	mov	r5, r0
 8004c02:	6818      	ldr	r0, [r3, #0]
 8004c04:	460c      	mov	r4, r1
 8004c06:	b118      	cbz	r0, 8004c10 <__swsetup_r+0x14>
 8004c08:	6a03      	ldr	r3, [r0, #32]
 8004c0a:	b90b      	cbnz	r3, 8004c10 <__swsetup_r+0x14>
 8004c0c:	f7ff fcb0 	bl	8004570 <__sinit>
 8004c10:	f9b4 300c 	ldrsh.w	r3, [r4, #12]
 8004c14:	0719      	lsls	r1, r3, #28
 8004c16:	d422      	bmi.n	8004c5e <__swsetup_r+0x62>
 8004c18:	06da      	lsls	r2, r3, #27
 8004c1a:	d407      	bmi.n	8004c2c <__swsetup_r+0x30>
 8004c1c:	2209      	movs	r2, #9
 8004c1e:	602a      	str	r2, [r5, #0]
 8004c20:	f043 0340 	orr.w	r3, r3, #64	@ 0x40
 8004c24:	81a3      	strh	r3, [r4, #12]
 8004c26:	f04f 30ff 	mov.w	r0, #4294967295	@ 0xffffffff
 8004c2a:	e033      	b.n	8004c94 <__swsetup_r+0x98>
 8004c2c:	0758      	lsls	r0, r3, #29
 8004c2e:	d512      	bpl.n	8004c56 <__swsetup_r+0x5a>
 8004c30:	6b61      	ldr	r1, [r4, #52]	@ 0x34
 8004c32:	b141      	cbz	r1, 8004c46 <__swsetup_r+0x4a>
 8004c34:	f104 0344 	add.w	r3, r4, #68	@ 0x44
 8004c38:	4299      	cmp	r1, r3
 8004c3a:	d002      	beq.n	8004c42 <__swsetup_r+0x46>
 8004c3c:	4628      	mov	r0, r5
 8004c3e:	f7ff fdb7 	bl	80047b0 <_free_r>
 8004c42:	2300      	movs	r3, #0
 8004c44:	6363      	str	r3, [r4, #52]	@ 0x34
 8004c46:	89a3      	ldrh	r3, [r4, #12]
 8004c48:	f023 0324 	bic.w	r3, r3, #36	@ 0x24
 8004c4c:	81a3      	strh	r3, [r4, #12]
 8004c4e:	2300      	movs	r3, #0
 8004c50:	6063      	str	r3, [r4, #4]
 8004c52:	6923      	ldr	r3, [r4, #16]
 8004c54:	6023      	str	r3, [r4, #0]
 8004c56:	89a3      	ldrh	r3, [r4, #12]
 8004c58:	f043 0308 	orr.w	r3, r3, #8
 8004c5c:	81a3      	strh	r3, [r4, #12]
 8004c5e:	6923      	ldr	r3, [r4, #16]
 8004c60:	b94b      	cbnz	r3, 8004c76 <__swsetup_r+0x7a>
 8004c62:	89a3      	ldrh	r3, [r4, #12]
 8004c64:	f403 7320 	and.w	r3, r3, #640	@ 0x280
 8004c68:	f5b3 7f00 	cmp.w	r3, #512	@ 0x200
 8004c6c:	d003      	beq.n	8004c76 <__swsetup_r+0x7a>
 8004c6e:	4621      	mov	r1, r4
 8004c70:	4628      	mov	r0, r5
 8004c72:	f000 f83f 	bl	8004cf4 <__smakebuf_r>
 8004c76:	f9b4 300c 	ldrsh.w	r3, [r4, #12]
 8004c7a:	f013 0201 	ands.w	r2, r3, #1
 8004c7e:	d00a      	beq.n	8004c96 <__swsetup_r+0x9a>
 8004c80:	2200      	movs	r2, #0
 8004c82:	60a2      	str	r2, [r4, #8]
 8004c84:	6962      	ldr	r2, [r4, #20]
 8004c86:	4252      	negs	r2, r2
 8004c88:	61a2      	str	r2, [r4, #24]
 8004c8a:	6922      	ldr	r2, [r4, #16]
 8004c8c:	b942      	cbnz	r2, 8004ca0 <__swsetup_r+0xa4>
 8004c8e:	f013 0080 	ands.w	r0, r3, #128	@ 0x80
 8004c92:	d1c5      	bne.n	8004c20 <__swsetup_r+0x24>
 8004c94:	bd38      	pop	{r3, r4, r5, pc}
 8004c96:	0799      	lsls	r1, r3, #30
 8004c98:	bf58      	it	pl
 8004c9a:	6962      	ldrpl	r2, [r4, #20]
 8004c9c:	60a2      	str	r2, [r4, #8]
 8004c9e:	e7f4      	b.n	8004c8a <__swsetup_r+0x8e>
 8004ca0:	2000      	movs	r0, #0
 8004ca2:	e7f7      	b.n	8004c94 <__swsetup_r+0x98>
 8004ca4:	20000108 	.word	0x20000108

08004ca8 <__swhatbuf_r>:
 8004ca8:	b570      	push	{r4, r5, r6, lr}
 8004caa:	460c      	mov	r4, r1
 8004cac:	f9b1 100e 	ldrsh.w	r1, [r1, #14]
 8004cb0:	2900      	cmp	r1, #0
 8004cb2:	b096      	sub	sp, #88	@ 0x58
 8004cb4:	4615      	mov	r5, r2
 8004cb6:	461e      	mov	r6, r3
 8004cb8:	da0d      	bge.n	8004cd6 <__swhatbuf_r+0x2e>
 8004cba:	89a3      	ldrh	r3, [r4, #12]
 8004cbc:	f013 0f80 	tst.w	r3, #128	@ 0x80
 8004cc0:	f04f 0100 	mov.w	r1, #0
 8004cc4:	bf14      	ite	ne
 8004cc6:	2340      	movne	r3, #64	@ 0x40
 8004cc8:	f44f 6380 	moveq.w	r3, #1024	@ 0x400
 8004ccc:	2000      	movs	r0, #0
 8004cce:	6031      	str	r1, [r6, #0]
 8004cd0:	602b      	str	r3, [r5, #0]
 8004cd2:	b016      	add	sp, #88	@ 0x58
 8004cd4:	bd70      	pop	{r4, r5, r6, pc}
 8004cd6:	466a      	mov	r2, sp
 8004cd8:	f000 f858 	bl	8004d8c <_fstat_r>
 8004cdc:	2800      	cmp	r0, #0
 8004cde:	dbec      	blt.n	8004cba <__swhatbuf_r+0x12>
 8004ce0:	9901      	ldr	r1, [sp, #4]
 8004ce2:	f401 4170 	and.w	r1, r1, #61440	@ 0xf000
 8004ce6:	f5a1 5300 	sub.w	r3, r1, #8192	@ 0x2000
 8004cea:	4259      	negs	r1, r3
 8004cec:	4159      	adcs	r1, r3
 8004cee:	f44f 6380 	mov.w	r3, #1024	@ 0x400
 8004cf2:	e7eb      	b.n	8004ccc <__swhatbuf_r+0x24>

08004cf4 <__smakebuf_r>:
 8004cf4:	898b      	ldrh	r3, [r1, #12]
 8004cf6:	b5f7      	push	{r0, r1, r2, r4, r5, r6, r7, lr}
 8004cf8:	079d      	lsls	r5, r3, #30
 8004cfa:	4606      	mov	r6, r0
 8004cfc:	460c      	mov	r4, r1
 8004cfe:	d507      	bpl.n	8004d10 <__smakebuf_r+0x1c>
 8004d00:	f104 0347 	add.w	r3, r4, #71	@ 0x47
 8004d04:	6023      	str	r3, [r4, #0]
 8004d06:	6123      	str	r3, [r4, #16]
 8004d08:	2301      	movs	r3, #1
 8004d0a:	6163      	str	r3, [r4, #20]
 8004d0c:	b003      	add	sp, #12
 8004d0e:	bdf0      	pop	{r4, r5, r6, r7, pc}
 8004d10:	ab01      	add	r3, sp, #4
 8004d12:	466a      	mov	r2, sp
 8004d14:	f7ff ffc8 	bl	8004ca8 <__swhatbuf_r>
 8004d18:	9f00      	ldr	r7, [sp, #0]
 8004d1a:	4605      	mov	r5, r0
 8004d1c:	4639      	mov	r1, r7
 8004d1e:	4630      	mov	r0, r6
 8004d20:	f7ff fdb2 	bl	8004888 <_malloc_r>
 8004d24:	b948      	cbnz	r0, 8004d3a <__smakebuf_r+0x46>
 8004d26:	f9b4 300c 	ldrsh.w	r3, [r4, #12]
 8004d2a:	059a      	lsls	r2, r3, #22
 8004d2c:	d4ee      	bmi.n	8004d0c <__smakebuf_r+0x18>
 8004d2e:	f023 0303 	bic.w	r3, r3, #3
 8004d32:	f043 0302 	orr.w	r3, r3, #2
 8004d36:	81a3      	strh	r3, [r4, #12]
 8004d38:	e7e2      	b.n	8004d00 <__smakebuf_r+0xc>
 8004d3a:	89a3      	ldrh	r3, [r4, #12]
 8004d3c:	6020      	str	r0, [r4, #0]
 8004d3e:	f043 0380 	orr.w	r3, r3, #128	@ 0x80
 8004d42:	81a3      	strh	r3, [r4, #12]
 8004d44:	9b01      	ldr	r3, [sp, #4]
 8004d46:	e9c4 0704 	strd	r0, r7, [r4, #16]
 8004d4a:	b15b      	cbz	r3, 8004d64 <__smakebuf_r+0x70>
 8004d4c:	f9b4 100e 	ldrsh.w	r1, [r4, #14]
 8004d50:	4630      	mov	r0, r6
 8004d52:	f000 f82d 	bl	8004db0 <_isatty_r>
 8004d56:	b128      	cbz	r0, 8004d64 <__smakebuf_r+0x70>
 8004d58:	89a3      	ldrh	r3, [r4, #12]
 8004d5a:	f023 0303 	bic.w	r3, r3, #3
 8004d5e:	f043 0301 	orr.w	r3, r3, #1
 8004d62:	81a3      	strh	r3, [r4, #12]
 8004d64:	89a3      	ldrh	r3, [r4, #12]
 8004d66:	431d      	orrs	r5, r3
 8004d68:	81a5      	strh	r5, [r4, #12]
 8004d6a:	e7cf      	b.n	8004d0c <__smakebuf_r+0x18>

08004d6c <_close_r>:
 8004d6c:	b538      	push	{r3, r4, r5, lr}
 8004d6e:	4d06      	ldr	r5, [pc, #24]	@ (8004d88 <_close_r+0x1c>)
 8004d70:	2300      	movs	r3, #0
 8004d72:	4604      	mov	r4, r0
 8004d74:	4608      	mov	r0, r1
 8004d76:	602b      	str	r3, [r5, #0]
 8004d78:	f7fb fd3e 	bl	80007f8 <_close>
 8004d7c:	1c43      	adds	r3, r0, #1
 8004d7e:	d102      	bne.n	8004d86 <_close_r+0x1a>
 8004d80:	682b      	ldr	r3, [r5, #0]
 8004d82:	b103      	cbz	r3, 8004d86 <_close_r+0x1a>
 8004d84:	6023      	str	r3, [r4, #0]
 8004d86:	bd38      	pop	{r3, r4, r5, pc}
 8004d88:	20005edc 	.word	0x20005edc

08004d8c <_fstat_r>:
 8004d8c:	b538      	push	{r3, r4, r5, lr}
 8004d8e:	4d07      	ldr	r5, [pc, #28]	@ (8004dac <_fstat_r+0x20>)
 8004d90:	2300      	movs	r3, #0
 8004d92:	4604      	mov	r4, r0
 8004d94:	4608      	mov	r0, r1
 8004d96:	4611      	mov	r1, r2
 8004d98:	602b      	str	r3, [r5, #0]
 8004d9a:	f7fb fd30 	bl	80007fe <_fstat>
 8004d9e:	1c43      	adds	r3, r0, #1
 8004da0:	d102      	bne.n	8004da8 <_fstat_r+0x1c>
 8004da2:	682b      	ldr	r3, [r5, #0]
 8004da4:	b103      	cbz	r3, 8004da8 <_fstat_r+0x1c>
 8004da6:	6023      	str	r3, [r4, #0]
 8004da8:	bd38      	pop	{r3, r4, r5, pc}
 8004daa:	bf00      	nop
 8004dac:	20005edc 	.word	0x20005edc

08004db0 <_isatty_r>:
 8004db0:	b538      	push	{r3, r4, r5, lr}
 8004db2:	4d06      	ldr	r5, [pc, #24]	@ (8004dcc <_isatty_r+0x1c>)
 8004db4:	2300      	movs	r3, #0
 8004db6:	4604      	mov	r4, r0
 8004db8:	4608      	mov	r0, r1
 8004dba:	602b      	str	r3, [r5, #0]
 8004dbc:	f7fb fd24 	bl	8000808 <_isatty>
 8004dc0:	1c43      	adds	r3, r0, #1
 8004dc2:	d102      	bne.n	8004dca <_isatty_r+0x1a>
 8004dc4:	682b      	ldr	r3, [r5, #0]
 8004dc6:	b103      	cbz	r3, 8004dca <_isatty_r+0x1a>
 8004dc8:	6023      	str	r3, [r4, #0]
 8004dca:	bd38      	pop	{r3, r4, r5, pc}
 8004dcc:	20005edc 	.word	0x20005edc

08004dd0 <_lseek_r>:
 8004dd0:	b538      	push	{r3, r4, r5, lr}
 8004dd2:	4d07      	ldr	r5, [pc, #28]	@ (8004df0 <_lseek_r+0x20>)
 8004dd4:	4604      	mov	r4, r0
 8004dd6:	4608      	mov	r0, r1
 8004dd8:	4611      	mov	r1, r2
 8004dda:	2200      	movs	r2, #0
 8004ddc:	602a      	str	r2, [r5, #0]
 8004dde:	461a      	mov	r2, r3
 8004de0:	f7fb fd14 	bl	800080c <_lseek>
 8004de4:	1c43      	adds	r3, r0, #1
 8004de6:	d102      	bne.n	8004dee <_lseek_r+0x1e>
 8004de8:	682b      	ldr	r3, [r5, #0]
 8004dea:	b103      	cbz	r3, 8004dee <_lseek_r+0x1e>
 8004dec:	6023      	str	r3, [r4, #0]
 8004dee:	bd38      	pop	{r3, r4, r5, pc}
 8004df0:	20005edc 	.word	0x20005edc

08004df4 <_read_r>:
 8004df4:	b538      	push	{r3, r4, r5, lr}
 8004df6:	4d07      	ldr	r5, [pc, #28]	@ (8004e14 <_read_r+0x20>)
 8004df8:	4604      	mov	r4, r0
 8004dfa:	4608      	mov	r0, r1
 8004dfc:	4611      	mov	r1, r2
 8004dfe:	2200      	movs	r2, #0
 8004e00:	602a      	str	r2, [r5, #0]
 8004e02:	461a      	mov	r2, r3
 8004e04:	f7fb fcea 	bl	80007dc <_read>
 8004e08:	1c43      	adds	r3, r0, #1
 8004e0a:	d102      	bne.n	8004e12 <_read_r+0x1e>
 8004e0c:	682b      	ldr	r3, [r5, #0]
 8004e0e:	b103      	cbz	r3, 8004e12 <_read_r+0x1e>
 8004e10:	6023      	str	r3, [r4, #0]
 8004e12:	bd38      	pop	{r3, r4, r5, pc}
 8004e14:	20005edc 	.word	0x20005edc

08004e18 <_sbrk_r>:
 8004e18:	b538      	push	{r3, r4, r5, lr}
 8004e1a:	4d06      	ldr	r5, [pc, #24]	@ (8004e34 <_sbrk_r+0x1c>)
 8004e1c:	2300      	movs	r3, #0
 8004e1e:	4604      	mov	r4, r0
 8004e20:	4608      	mov	r0, r1
 8004e22:	602b      	str	r3, [r5, #0]
 8004e24:	f7fb fcf4 	bl	8000810 <_sbrk>
 8004e28:	1c43      	adds	r3, r0, #1
 8004e2a:	d102      	bne.n	8004e32 <_sbrk_r+0x1a>
 8004e2c:	682b      	ldr	r3, [r5, #0]
 8004e2e:	b103      	cbz	r3, 8004e32 <_sbrk_r+0x1a>
 8004e30:	6023      	str	r3, [r4, #0]
 8004e32:	bd38      	pop	{r3, r4, r5, pc}
 8004e34:	20005edc 	.word	0x20005edc

08004e38 <_write_r>:
 8004e38:	b538      	push	{r3, r4, r5, lr}
 8004e3a:	4d07      	ldr	r5, [pc, #28]	@ (8004e58 <_write_r+0x20>)
 8004e3c:	4604      	mov	r4, r0
 8004e3e:	4608      	mov	r0, r1
 8004e40:	4611      	mov	r1, r2
 8004e42:	2200      	movs	r2, #0
 8004e44:	602a      	str	r2, [r5, #0]
 8004e46:	461a      	mov	r2, r3
 8004e48:	f7fb fb78 	bl	800053c <_write>
 8004e4c:	1c43      	adds	r3, r0, #1
 8004e4e:	d102      	bne.n	8004e56 <_write_r+0x1e>
 8004e50:	682b      	ldr	r3, [r5, #0]
 8004e52:	b103      	cbz	r3, 8004e56 <_write_r+0x1e>
 8004e54:	6023      	str	r3, [r4, #0]
 8004e56:	bd38      	pop	{r3, r4, r5, pc}
 8004e58:	20005edc 	.word	0x20005edc

08004e5c <_init>:
 8004e5c:	b5f8      	push	{r3, r4, r5, r6, r7, lr}
 8004e5e:	bf00      	nop
 8004e60:	bcf8      	pop	{r3, r4, r5, r6, r7}
 8004e62:	bc08      	pop	{r3}
 8004e64:	469e      	mov	lr, r3
 8004e66:	4770      	bx	lr

08004e68 <_fini>:
 8004e68:	b5f8      	push	{r3, r4, r5, r6, r7, lr}
 8004e6a:	bf00      	nop
 8004e6c:	bcf8      	pop	{r3, r4, r5, r6, r7}
 8004e6e:	bc08      	pop	{r3}
 8004e70:	469e      	mov	lr, r3
 8004e72:	4770      	bx	lr
